; ModuleID = 'Arduino/WString.cpp'
source_filename = "Arduino/WString.cpp"
target datalayout = "e-p:16:16:16-i8:8:8-i16:16:16-i32:32:32-i64:64:64-f32:32:32-f64:64:64-n8"
target triple = "avr-atmel-none"

%class.String = type { i8*, i16, i16 }
%class.__FlashStringHelper = type opaque
%class.StringSumHelper = type { %class.String }

@_ZZN6StringixEjE19dummy_writable_char = internal global i8 0, align 1, !dbg !0

@_ZN6StringC1EPKc = alias void (%class.String*, i8*), void (%class.String*, i8*)* @_ZN6StringC2EPKc
@_ZN6StringC1ERKS_ = alias void (%class.String*, %class.String*), void (%class.String*, %class.String*)* @_ZN6StringC2ERKS_
@_ZN6StringC1EPK19__FlashStringHelper = alias void (%class.String*, %class.__FlashStringHelper*), void (%class.String*, %class.__FlashStringHelper*)* @_ZN6StringC2EPK19__FlashStringHelper
@_ZN6StringC1Ec = alias void (%class.String*, i8), void (%class.String*, i8)* @_ZN6StringC2Ec
@_ZN6StringC1Ehh = alias void (%class.String*, i8, i8), void (%class.String*, i8, i8)* @_ZN6StringC2Ehh
@_ZN6StringC1Eih = alias void (%class.String*, i16, i8), void (%class.String*, i16, i8)* @_ZN6StringC2Eih
@_ZN6StringC1Ejh = alias void (%class.String*, i16, i8), void (%class.String*, i16, i8)* @_ZN6StringC2Ejh
@_ZN6StringC1Elh = alias void (%class.String*, i32, i8), void (%class.String*, i32, i8)* @_ZN6StringC2Elh
@_ZN6StringC1Emh = alias void (%class.String*, i32, i8), void (%class.String*, i32, i8)* @_ZN6StringC2Emh
@_ZN6StringC1Efh = alias void (%class.String*, float, i8), void (%class.String*, float, i8)* @_ZN6StringC2Efh
@_ZN6StringC1Edh = alias void (%class.String*, float, i8), void (%class.String*, float, i8)* @_ZN6StringC2Edh
@_ZN6StringD1Ev = alias void (%class.String*), void (%class.String*)* @_ZN6StringD2Ev

; Function Attrs: nounwind
define void @_ZN6StringC2EPKc(%class.String* nocapture %this, i8* readonly %cstr) unnamed_addr #0 align 2 !dbg !262 {
entry:
  tail call void @llvm.dbg.value(metadata %class.String* %this, i64 0, metadata !264, metadata !266), !dbg !267
  tail call void @llvm.dbg.value(metadata i8* %cstr, i64 0, metadata !265, metadata !266), !dbg !268
  tail call void @llvm.dbg.value(metadata %class.String* %this, i64 0, metadata !269, metadata !266), !dbg !272
  %buffer.i = getelementptr inbounds %class.String, %class.String* %this, i16 0, i32 0, !dbg !275
  store i8* null, i8** %buffer.i, align 1, !dbg !276, !tbaa !277
  %capacity.i = getelementptr inbounds %class.String, %class.String* %this, i16 0, i32 1, !dbg !283
  store i16 0, i16* %capacity.i, align 1, !dbg !284, !tbaa !285
  %len.i = getelementptr inbounds %class.String, %class.String* %this, i16 0, i32 2, !dbg !286
  store i16 0, i16* %len.i, align 1, !dbg !287, !tbaa !288
  %tobool = icmp eq i8* %cstr, null, !dbg !289
  br i1 %tobool, label %if.end, label %if.end.i.i, !dbg !291

if.end.i.i:                                       ; preds = %entry
  %call = tail call i16 @strlen(i8* nonnull %cstr) #9, !dbg !292
  tail call void @llvm.dbg.value(metadata %class.String* %this, i64 0, metadata !294, metadata !266) #10, !dbg !299
  tail call void @llvm.dbg.value(metadata i8* %cstr, i64 0, metadata !297, metadata !266) #10, !dbg !302
  tail call void @llvm.dbg.value(metadata i16 %call, i64 0, metadata !298, metadata !266) #10, !dbg !303
  tail call void @llvm.dbg.value(metadata %class.String* %this, i64 0, metadata !304, metadata !266) #10, !dbg !308
  tail call void @llvm.dbg.value(metadata i16 %call, i64 0, metadata !307, metadata !266) #10, !dbg !311
  tail call void @llvm.dbg.value(metadata %class.String* %this, i64 0, metadata !312, metadata !266) #10, !dbg !317
  tail call void @llvm.dbg.value(metadata i16 %call, i64 0, metadata !315, metadata !266) #10, !dbg !320
  %add.i.i.i = add i16 %call, 1, !dbg !321
  %call.i.i.i = tail call noalias i8* @realloc(i8* null, i16 %add.i.i.i) #10, !dbg !322
  tail call void @llvm.dbg.value(metadata i8* %call.i.i.i, i64 0, metadata !316, metadata !266) #10, !dbg !323
  %tobool.i.i.i = icmp eq i8* %call.i.i.i, null, !dbg !324
  br i1 %tobool.i.i.i, label %if.then.i, label %if.then3.i.i, !dbg !326

if.then3.i.i:                                     ; preds = %if.end.i.i
  store i8* %call.i.i.i, i8** %buffer.i, align 1, !dbg !327, !tbaa !277
  store i16 %call, i16* %capacity.i, align 1, !dbg !329, !tbaa !285
  %0 = load i16, i16* %len.i, align 1, !dbg !330, !tbaa !288
  %cmp4.i.i = icmp eq i16 %0, 0, !dbg !333
  br i1 %cmp4.i.i, label %if.then5.i.i, label %if.end.i, !dbg !334

if.then5.i.i:                                     ; preds = %if.then3.i.i
  store i8 0, i8* %call.i.i.i, align 1, !dbg !335, !tbaa !337
  br label %if.end.i, !dbg !338

if.then.i:                                        ; preds = %if.end.i.i
  tail call void @llvm.dbg.value(metadata %class.String* %this, i64 0, metadata !339, metadata !266) #10, !dbg !342
  %1 = load i8*, i8** %buffer.i, align 1, !dbg !345, !tbaa !277
  %tobool.i5.i = icmp eq i8* %1, null, !dbg !345
  br i1 %tobool.i5.i, label %_ZN6String10invalidateEv.exit.i, label %if.then.i.i, !dbg !347

if.then.i.i:                                      ; preds = %if.then.i
  tail call void @free(i8* nonnull %1) #10, !dbg !348
  br label %_ZN6String10invalidateEv.exit.i, !dbg !348

_ZN6String10invalidateEv.exit.i:                  ; preds = %if.then.i.i, %if.then.i
  store i8* null, i8** %buffer.i, align 1, !dbg !350, !tbaa !277
  store i16 0, i16* %len.i, align 1, !dbg !351, !tbaa !288
  store i16 0, i16* %capacity.i, align 1, !dbg !352, !tbaa !285
  br label %if.end, !dbg !353

if.end.i:                                         ; preds = %if.then5.i.i, %if.then3.i.i
  store i16 %call, i16* %len.i, align 1, !dbg !354, !tbaa !288
  %call2.i = tail call i8* @strcpy(i8* nonnull %call.i.i.i, i8* nonnull %cstr) #10, !dbg !355
  br label %if.end, !dbg !356

if.end:                                           ; preds = %if.end.i, %_ZN6String10invalidateEv.exit.i, %entry
  ret void, !dbg !357
}

; Function Attrs: nounwind readnone
declare void @llvm.dbg.declare(metadata, metadata, metadata) #1

; Function Attrs: nounwind
define dereferenceable(6) %class.String* @_ZN6String4copyEPKcj(%class.String* returned %this, i8* nocapture readonly %cstr, i16 %length) local_unnamed_addr #0 align 2 !dbg !295 {
entry:
  tail call void @llvm.dbg.value(metadata %class.String* %this, i64 0, metadata !294, metadata !266), !dbg !358
  tail call void @llvm.dbg.value(metadata i8* %cstr, i64 0, metadata !297, metadata !266), !dbg !359
  tail call void @llvm.dbg.value(metadata i16 %length, i64 0, metadata !298, metadata !266), !dbg !360
  tail call void @llvm.dbg.value(metadata %class.String* %this, i64 0, metadata !304, metadata !266) #10, !dbg !361
  tail call void @llvm.dbg.value(metadata i16 %length, i64 0, metadata !307, metadata !266) #10, !dbg !363
  %buffer.i = getelementptr inbounds %class.String, %class.String* %this, i16 0, i32 0, !dbg !364
  %0 = load i8*, i8** %buffer.i, align 1, !dbg !364, !tbaa !277
  %tobool.i = icmp eq i8* %0, null, !dbg !364
  br i1 %tobool.i, label %if.end.i, label %land.lhs.true.i, !dbg !366

land.lhs.true.i:                                  ; preds = %entry
  %capacity.i = getelementptr inbounds %class.String, %class.String* %this, i16 0, i32 1, !dbg !367
  %1 = load i16, i16* %capacity.i, align 1, !dbg !367, !tbaa !285
  %cmp.i = icmp ult i16 %1, %length, !dbg !369
  br i1 %cmp.i, label %if.end.i, label %land.lhs.true.i.if.end_crit_edge, !dbg !370

land.lhs.true.i.if.end_crit_edge:                 ; preds = %land.lhs.true.i
  %.pre = getelementptr inbounds %class.String, %class.String* %this, i16 0, i32 2, !dbg !372
  br label %if.end, !dbg !370

if.end.i:                                         ; preds = %land.lhs.true.i, %entry
  tail call void @llvm.dbg.value(metadata %class.String* %this, i64 0, metadata !312, metadata !266) #10, !dbg !373
  tail call void @llvm.dbg.value(metadata i16 %length, i64 0, metadata !315, metadata !266) #10, !dbg !375
  %add.i.i = add i16 %length, 1, !dbg !376
  %call.i.i = tail call noalias i8* @realloc(i8* %0, i16 %add.i.i) #10, !dbg !377
  tail call void @llvm.dbg.value(metadata i8* %call.i.i, i64 0, metadata !316, metadata !266) #10, !dbg !378
  %tobool.i.i = icmp eq i8* %call.i.i, null, !dbg !379
  br i1 %tobool.i.i, label %if.then, label %if.then3.i, !dbg !380

if.then3.i:                                       ; preds = %if.end.i
  store i8* %call.i.i, i8** %buffer.i, align 1, !dbg !381, !tbaa !277
  %capacity.i.i = getelementptr inbounds %class.String, %class.String* %this, i16 0, i32 1, !dbg !382
  store i16 %length, i16* %capacity.i.i, align 1, !dbg !383, !tbaa !285
  %len.i = getelementptr inbounds %class.String, %class.String* %this, i16 0, i32 2, !dbg !384
  %2 = load i16, i16* %len.i, align 1, !dbg !384, !tbaa !288
  %cmp4.i = icmp eq i16 %2, 0, !dbg !385
  br i1 %cmp4.i, label %if.then5.i, label %if.end, !dbg !386

if.then5.i:                                       ; preds = %if.then3.i
  store i8 0, i8* %call.i.i, align 1, !dbg !387, !tbaa !337
  br label %if.end, !dbg !388

if.then:                                          ; preds = %if.end.i
  tail call void @llvm.dbg.value(metadata %class.String* %this, i64 0, metadata !339, metadata !266) #10, !dbg !389
  %3 = load i8*, i8** %buffer.i, align 1, !dbg !391, !tbaa !277
  %tobool.i5 = icmp eq i8* %3, null, !dbg !391
  br i1 %tobool.i5, label %_ZN6String10invalidateEv.exit, label %if.then.i, !dbg !392

if.then.i:                                        ; preds = %if.then
  tail call void @free(i8* nonnull %3) #10, !dbg !393
  br label %_ZN6String10invalidateEv.exit, !dbg !393

_ZN6String10invalidateEv.exit:                    ; preds = %if.then, %if.then.i
  store i8* null, i8** %buffer.i, align 1, !dbg !394, !tbaa !277
  %len.i6 = getelementptr inbounds %class.String, %class.String* %this, i16 0, i32 2, !dbg !395
  store i16 0, i16* %len.i6, align 1, !dbg !396, !tbaa !288
  %capacity.i7 = getelementptr inbounds %class.String, %class.String* %this, i16 0, i32 1, !dbg !397
  store i16 0, i16* %capacity.i7, align 1, !dbg !398, !tbaa !285
  br label %return, !dbg !399

if.end:                                           ; preds = %land.lhs.true.i.if.end_crit_edge, %if.then5.i, %if.then3.i
  %len.pre-phi = phi i16* [ %.pre, %land.lhs.true.i.if.end_crit_edge ], [ %len.i, %if.then5.i ], [ %len.i, %if.then3.i ], !dbg !372
  %4 = phi i8* [ %0, %land.lhs.true.i.if.end_crit_edge ], [ %call.i.i, %if.then5.i ], [ %call.i.i, %if.then3.i ], !dbg !400
  store i16 %length, i16* %len.pre-phi, align 1, !dbg !401, !tbaa !288
  %call2 = tail call i8* @strcpy(i8* nonnull %4, i8* %cstr), !dbg !402
  br label %return, !dbg !403

return:                                           ; preds = %if.end, %_ZN6String10invalidateEv.exit
  ret %class.String* %this, !dbg !404
}

; Function Attrs: nounwind readonly
declare i16 @strlen(i8* nocapture) local_unnamed_addr #2

; Function Attrs: nounwind
define void @_ZN6StringC2ERKS_(%class.String* %this, %class.String* readonly dereferenceable(6) %value) unnamed_addr #0 align 2 !dbg !405 {
entry:
  tail call void @llvm.dbg.value(metadata %class.String* %this, i64 0, metadata !407, metadata !266), !dbg !409
  tail call void @llvm.dbg.value(metadata %class.String* %value, i64 0, metadata !408, metadata !266), !dbg !410
  tail call void @llvm.dbg.value(metadata %class.String* %this, i64 0, metadata !269, metadata !266), !dbg !411
  %buffer.i = getelementptr inbounds %class.String, %class.String* %this, i16 0, i32 0, !dbg !414
  store i8* null, i8** %buffer.i, align 1, !dbg !415, !tbaa !277
  %capacity.i = getelementptr inbounds %class.String, %class.String* %this, i16 0, i32 1, !dbg !416
  store i16 0, i16* %capacity.i, align 1, !dbg !417, !tbaa !285
  %len.i = getelementptr inbounds %class.String, %class.String* %this, i16 0, i32 2, !dbg !418
  store i16 0, i16* %len.i, align 1, !dbg !419, !tbaa !288
  %call = tail call dereferenceable(6) %class.String* @_ZN6StringaSERKS_(%class.String* %this, %class.String* nonnull dereferenceable(6) %value), !dbg !420
  ret void, !dbg !421
}

; Function Attrs: nounwind
define dereferenceable(6) %class.String* @_ZN6StringaSERKS_(%class.String* returned %this, %class.String* readonly dereferenceable(6) %rhs) local_unnamed_addr #0 align 2 !dbg !422 {
entry:
  tail call void @llvm.dbg.value(metadata %class.String* %this, i64 0, metadata !424, metadata !266), !dbg !426
  tail call void @llvm.dbg.value(metadata %class.String* %rhs, i64 0, metadata !425, metadata !266), !dbg !427
  %cmp = icmp eq %class.String* %this, %rhs, !dbg !428
  br i1 %cmp, label %return, label %if.end, !dbg !430

if.end:                                           ; preds = %entry
  %buffer = getelementptr inbounds %class.String, %class.String* %rhs, i16 0, i32 0, !dbg !431
  %0 = load i8*, i8** %buffer, align 1, !dbg !431, !tbaa !277
  %tobool = icmp eq i8* %0, null, !dbg !433
  br i1 %tobool, label %if.else, label %if.then2, !dbg !434

if.then2:                                         ; preds = %if.end
  %len = getelementptr inbounds %class.String, %class.String* %rhs, i16 0, i32 2, !dbg !435
  %1 = load i16, i16* %len, align 1, !dbg !435, !tbaa !288
  tail call void @llvm.dbg.value(metadata %class.String* %this, i64 0, metadata !294, metadata !266) #10, !dbg !437
  tail call void @llvm.dbg.value(metadata i8* %0, i64 0, metadata !297, metadata !266) #10, !dbg !439
  tail call void @llvm.dbg.value(metadata i16 %1, i64 0, metadata !298, metadata !266) #10, !dbg !440
  tail call void @llvm.dbg.value(metadata %class.String* %this, i64 0, metadata !304, metadata !266) #10, !dbg !441
  tail call void @llvm.dbg.value(metadata i16 %1, i64 0, metadata !307, metadata !266) #10, !dbg !443
  %buffer.i.i = getelementptr inbounds %class.String, %class.String* %this, i16 0, i32 0, !dbg !444
  %2 = load i8*, i8** %buffer.i.i, align 1, !dbg !444, !tbaa !277
  %tobool.i.i = icmp eq i8* %2, null, !dbg !444
  br i1 %tobool.i.i, label %if.end.i.i, label %land.lhs.true.i.i, !dbg !445

land.lhs.true.i.i:                                ; preds = %if.then2
  %capacity.i.i = getelementptr inbounds %class.String, %class.String* %this, i16 0, i32 1, !dbg !446
  %3 = load i16, i16* %capacity.i.i, align 1, !dbg !446, !tbaa !285
  %cmp.i.i = icmp ult i16 %3, %1, !dbg !447
  br i1 %cmp.i.i, label %if.end.i.i, label %land.lhs.true.i.if.end_crit_edge.i, !dbg !448

land.lhs.true.i.if.end_crit_edge.i:               ; preds = %land.lhs.true.i.i
  %.pre.i = getelementptr inbounds %class.String, %class.String* %this, i16 0, i32 2, !dbg !449
  br label %if.end.i, !dbg !448

if.end.i.i:                                       ; preds = %land.lhs.true.i.i, %if.then2
  tail call void @llvm.dbg.value(metadata %class.String* %this, i64 0, metadata !312, metadata !266) #10, !dbg !450
  tail call void @llvm.dbg.value(metadata i16 %1, i64 0, metadata !315, metadata !266) #10, !dbg !452
  %add.i.i.i = add i16 %1, 1, !dbg !453
  %call.i.i.i = tail call noalias i8* @realloc(i8* %2, i16 %add.i.i.i) #10, !dbg !454
  tail call void @llvm.dbg.value(metadata i8* %call.i.i.i, i64 0, metadata !316, metadata !266) #10, !dbg !455
  %tobool.i.i.i = icmp eq i8* %call.i.i.i, null, !dbg !456
  br i1 %tobool.i.i.i, label %if.then.i, label %if.then3.i.i, !dbg !457

if.then3.i.i:                                     ; preds = %if.end.i.i
  store i8* %call.i.i.i, i8** %buffer.i.i, align 1, !dbg !458, !tbaa !277
  %capacity.i.i.i = getelementptr inbounds %class.String, %class.String* %this, i16 0, i32 1, !dbg !459
  store i16 %1, i16* %capacity.i.i.i, align 1, !dbg !460, !tbaa !285
  %len.i.i = getelementptr inbounds %class.String, %class.String* %this, i16 0, i32 2, !dbg !461
  %4 = load i16, i16* %len.i.i, align 1, !dbg !461, !tbaa !288
  %cmp4.i.i = icmp eq i16 %4, 0, !dbg !462
  br i1 %cmp4.i.i, label %if.then5.i.i, label %if.end.i, !dbg !463

if.then5.i.i:                                     ; preds = %if.then3.i.i
  store i8 0, i8* %call.i.i.i, align 1, !dbg !464, !tbaa !337
  br label %if.end.i, !dbg !465

if.then.i:                                        ; preds = %if.end.i.i
  tail call void @llvm.dbg.value(metadata %class.String* %this, i64 0, metadata !339, metadata !266) #10, !dbg !466
  %5 = load i8*, i8** %buffer.i.i, align 1, !dbg !468, !tbaa !277
  %tobool.i5.i = icmp eq i8* %5, null, !dbg !468
  br i1 %tobool.i5.i, label %_ZN6String10invalidateEv.exit.i, label %if.then.i.i, !dbg !469

if.then.i.i:                                      ; preds = %if.then.i
  tail call void @free(i8* nonnull %5) #10, !dbg !470
  br label %_ZN6String10invalidateEv.exit.i, !dbg !470

_ZN6String10invalidateEv.exit.i:                  ; preds = %if.then.i.i, %if.then.i
  store i8* null, i8** %buffer.i.i, align 1, !dbg !471, !tbaa !277
  %len.i6.i = getelementptr inbounds %class.String, %class.String* %this, i16 0, i32 2, !dbg !472
  store i16 0, i16* %len.i6.i, align 1, !dbg !473, !tbaa !288
  %capacity.i7.i = getelementptr inbounds %class.String, %class.String* %this, i16 0, i32 1, !dbg !474
  store i16 0, i16* %capacity.i7.i, align 1, !dbg !475, !tbaa !285
  br label %return, !dbg !476

if.end.i:                                         ; preds = %if.then5.i.i, %if.then3.i.i, %land.lhs.true.i.if.end_crit_edge.i
  %len.pre-phi.i = phi i16* [ %.pre.i, %land.lhs.true.i.if.end_crit_edge.i ], [ %len.i.i, %if.then5.i.i ], [ %len.i.i, %if.then3.i.i ], !dbg !449
  %6 = phi i8* [ %2, %land.lhs.true.i.if.end_crit_edge.i ], [ %call.i.i.i, %if.then5.i.i ], [ %call.i.i.i, %if.then3.i.i ], !dbg !477
  store i16 %1, i16* %len.pre-phi.i, align 1, !dbg !478, !tbaa !288
  %call2.i = tail call i8* @strcpy(i8* nonnull %6, i8* nonnull %0) #10, !dbg !479
  br label %return, !dbg !480

if.else:                                          ; preds = %if.end
  tail call void @llvm.dbg.value(metadata %class.String* %this, i64 0, metadata !339, metadata !266) #10, !dbg !481
  %buffer.i = getelementptr inbounds %class.String, %class.String* %this, i16 0, i32 0, !dbg !483
  %7 = load i8*, i8** %buffer.i, align 1, !dbg !483, !tbaa !277
  %tobool.i = icmp eq i8* %7, null, !dbg !483
  br i1 %tobool.i, label %_ZN6String10invalidateEv.exit, label %if.then.i8, !dbg !484

if.then.i8:                                       ; preds = %if.else
  tail call void @free(i8* nonnull %7) #10, !dbg !485
  br label %_ZN6String10invalidateEv.exit, !dbg !485

_ZN6String10invalidateEv.exit:                    ; preds = %if.else, %if.then.i8
  store i8* null, i8** %buffer.i, align 1, !dbg !486, !tbaa !277
  %len.i = getelementptr inbounds %class.String, %class.String* %this, i16 0, i32 2, !dbg !487
  store i16 0, i16* %len.i, align 1, !dbg !488, !tbaa !288
  %capacity.i = getelementptr inbounds %class.String, %class.String* %this, i16 0, i32 1, !dbg !489
  store i16 0, i16* %capacity.i, align 1, !dbg !490, !tbaa !285
  br label %return

return:                                           ; preds = %if.end.i, %_ZN6String10invalidateEv.exit.i, %_ZN6String10invalidateEv.exit, %entry
  ret %class.String* %this, !dbg !491
}

define void @_ZN6StringC2EPK19__FlashStringHelper(%class.String* %this, %class.__FlashStringHelper* %pstr) unnamed_addr #3 align 2 !dbg !492 {
entry:
  tail call void @llvm.dbg.value(metadata %class.String* %this, i64 0, metadata !494, metadata !266), !dbg !496
  tail call void @llvm.dbg.value(metadata %class.__FlashStringHelper* %pstr, i64 0, metadata !495, metadata !266), !dbg !497
  tail call void @llvm.dbg.value(metadata %class.String* %this, i64 0, metadata !269, metadata !266), !dbg !498
  %buffer.i = getelementptr inbounds %class.String, %class.String* %this, i16 0, i32 0, !dbg !501
  store i8* null, i8** %buffer.i, align 1, !dbg !502, !tbaa !277
  %capacity.i = getelementptr inbounds %class.String, %class.String* %this, i16 0, i32 1, !dbg !503
  store i16 0, i16* %capacity.i, align 1, !dbg !504, !tbaa !285
  %len.i = getelementptr inbounds %class.String, %class.String* %this, i16 0, i32 2, !dbg !505
  store i16 0, i16* %len.i, align 1, !dbg !506, !tbaa !288
  %call = tail call dereferenceable(6) %class.String* @_ZN6StringaSEPK19__FlashStringHelper(%class.String* %this, %class.__FlashStringHelper* %pstr), !dbg !507
  ret void, !dbg !508
}

define dereferenceable(6) %class.String* @_ZN6StringaSEPK19__FlashStringHelper(%class.String* returned %this, %class.__FlashStringHelper* %pstr) local_unnamed_addr #3 align 2 !dbg !509 {
entry:
  tail call void @llvm.dbg.value(metadata %class.String* %this, i64 0, metadata !511, metadata !266), !dbg !513
  tail call void @llvm.dbg.value(metadata %class.__FlashStringHelper* %pstr, i64 0, metadata !512, metadata !266), !dbg !514
  %tobool = icmp eq %class.__FlashStringHelper* %pstr, null, !dbg !515
  br i1 %tobool, label %if.else, label %if.then, !dbg !517

if.then:                                          ; preds = %entry
  %0 = bitcast %class.__FlashStringHelper* %pstr to i8*, !dbg !518
  tail call void @llvm.dbg.value(metadata i8* %0, i64 0, metadata !520, metadata !266) #10, !dbg !528
  %call.i = tail call i16 @__strlen_P(i8* %0) #1, !dbg !530
  tail call void @llvm.dbg.value(metadata %class.String* %this, i64 0, metadata !531, metadata !266), !dbg !536
  tail call void @llvm.dbg.value(metadata %class.__FlashStringHelper* %pstr, i64 0, metadata !534, metadata !266), !dbg !539
  tail call void @llvm.dbg.value(metadata i16 %call.i, i64 0, metadata !535, metadata !266), !dbg !540
  tail call void @llvm.dbg.value(metadata %class.String* %this, i64 0, metadata !304, metadata !266) #10, !dbg !541
  tail call void @llvm.dbg.value(metadata i16 %call.i, i64 0, metadata !307, metadata !266) #10, !dbg !544
  %buffer.i.i = getelementptr inbounds %class.String, %class.String* %this, i16 0, i32 0, !dbg !545
  %1 = load i8*, i8** %buffer.i.i, align 1, !dbg !545, !tbaa !277
  %tobool.i.i = icmp eq i8* %1, null, !dbg !545
  br i1 %tobool.i.i, label %if.end.i.i, label %land.lhs.true.i.i, !dbg !546

land.lhs.true.i.i:                                ; preds = %if.then
  %capacity.i.i = getelementptr inbounds %class.String, %class.String* %this, i16 0, i32 1, !dbg !547
  %2 = load i16, i16* %capacity.i.i, align 1, !dbg !547, !tbaa !285
  %cmp.i.i = icmp ult i16 %2, %call.i, !dbg !548
  br i1 %cmp.i.i, label %if.end.i.i, label %land.lhs.true.i.if.end_crit_edge.i, !dbg !549

land.lhs.true.i.if.end_crit_edge.i:               ; preds = %land.lhs.true.i.i
  %.pre.i = getelementptr inbounds %class.String, %class.String* %this, i16 0, i32 2, !dbg !550
  br label %if.end.i, !dbg !549

if.end.i.i:                                       ; preds = %land.lhs.true.i.i, %if.then
  tail call void @llvm.dbg.value(metadata %class.String* %this, i64 0, metadata !312, metadata !266) #10, !dbg !551
  tail call void @llvm.dbg.value(metadata i16 %call.i, i64 0, metadata !315, metadata !266) #10, !dbg !553
  %add.i.i.i = add i16 %call.i, 1, !dbg !554
  %call.i.i.i = tail call noalias i8* @realloc(i8* %1, i16 %add.i.i.i) #10, !dbg !555
  tail call void @llvm.dbg.value(metadata i8* %call.i.i.i, i64 0, metadata !316, metadata !266) #10, !dbg !556
  %tobool.i.i.i = icmp eq i8* %call.i.i.i, null, !dbg !557
  br i1 %tobool.i.i.i, label %if.then.i, label %if.then3.i.i, !dbg !558

if.then3.i.i:                                     ; preds = %if.end.i.i
  store i8* %call.i.i.i, i8** %buffer.i.i, align 1, !dbg !559, !tbaa !277
  %capacity.i.i.i = getelementptr inbounds %class.String, %class.String* %this, i16 0, i32 1, !dbg !560
  store i16 %call.i, i16* %capacity.i.i.i, align 1, !dbg !561, !tbaa !285
  %len.i.i = getelementptr inbounds %class.String, %class.String* %this, i16 0, i32 2, !dbg !562
  %3 = load i16, i16* %len.i.i, align 1, !dbg !562, !tbaa !288
  %cmp4.i.i = icmp eq i16 %3, 0, !dbg !563
  br i1 %cmp4.i.i, label %if.then5.i.i, label %if.end.i, !dbg !564

if.then5.i.i:                                     ; preds = %if.then3.i.i
  store i8 0, i8* %call.i.i.i, align 1, !dbg !565, !tbaa !337
  br label %if.end.i, !dbg !566

if.then.i:                                        ; preds = %if.end.i.i
  tail call void @llvm.dbg.value(metadata %class.String* %this, i64 0, metadata !339, metadata !266) #10, !dbg !567
  %4 = load i8*, i8** %buffer.i.i, align 1, !dbg !570, !tbaa !277
  %tobool.i5.i = icmp eq i8* %4, null, !dbg !570
  br i1 %tobool.i5.i, label %_ZN6String10invalidateEv.exit.i, label %if.then.i.i, !dbg !571

if.then.i.i:                                      ; preds = %if.then.i
  tail call void @free(i8* nonnull %4) #10, !dbg !572
  br label %_ZN6String10invalidateEv.exit.i, !dbg !572

_ZN6String10invalidateEv.exit.i:                  ; preds = %if.then.i.i, %if.then.i
  store i8* null, i8** %buffer.i.i, align 1, !dbg !573, !tbaa !277
  %len.i6.i = getelementptr inbounds %class.String, %class.String* %this, i16 0, i32 2, !dbg !574
  store i16 0, i16* %len.i6.i, align 1, !dbg !575, !tbaa !288
  %capacity.i7.i = getelementptr inbounds %class.String, %class.String* %this, i16 0, i32 1, !dbg !576
  store i16 0, i16* %capacity.i7.i, align 1, !dbg !577, !tbaa !285
  br label %if.end, !dbg !578

if.end.i:                                         ; preds = %if.then5.i.i, %if.then3.i.i, %land.lhs.true.i.if.end_crit_edge.i
  %len.pre-phi.i = phi i16* [ %.pre.i, %land.lhs.true.i.if.end_crit_edge.i ], [ %len.i.i, %if.then5.i.i ], [ %len.i.i, %if.then3.i.i ], !dbg !550
  %5 = phi i8* [ %1, %land.lhs.true.i.if.end_crit_edge.i ], [ %call.i.i.i, %if.then5.i.i ], [ %call.i.i.i, %if.then3.i.i ], !dbg !579
  store i16 %call.i, i16* %len.pre-phi.i, align 1, !dbg !580, !tbaa !288
  %call2.i = tail call i8* @strcpy_P(i8* nonnull %5, i8* %0), !dbg !581
  br label %if.end, !dbg !582

if.else:                                          ; preds = %entry
  tail call void @llvm.dbg.value(metadata %class.String* %this, i64 0, metadata !339, metadata !266) #10, !dbg !583
  %buffer.i = getelementptr inbounds %class.String, %class.String* %this, i16 0, i32 0, !dbg !585
  %6 = load i8*, i8** %buffer.i, align 1, !dbg !585, !tbaa !277
  %tobool.i = icmp eq i8* %6, null, !dbg !585
  br i1 %tobool.i, label %_ZN6String10invalidateEv.exit, label %if.then.i5, !dbg !586

if.then.i5:                                       ; preds = %if.else
  tail call void @free(i8* nonnull %6) #10, !dbg !587
  br label %_ZN6String10invalidateEv.exit, !dbg !587

_ZN6String10invalidateEv.exit:                    ; preds = %if.else, %if.then.i5
  store i8* null, i8** %buffer.i, align 1, !dbg !588, !tbaa !277
  %len.i = getelementptr inbounds %class.String, %class.String* %this, i16 0, i32 2, !dbg !589
  store i16 0, i16* %len.i, align 1, !dbg !590, !tbaa !288
  %capacity.i = getelementptr inbounds %class.String, %class.String* %this, i16 0, i32 1, !dbg !591
  store i16 0, i16* %capacity.i, align 1, !dbg !592, !tbaa !285
  br label %if.end

if.end:                                           ; preds = %if.end.i, %_ZN6String10invalidateEv.exit.i, %_ZN6String10invalidateEv.exit
  ret %class.String* %this, !dbg !593
}

; Function Attrs: nounwind
define void @_ZN6StringC2Ec(%class.String* nocapture %this, i8 signext %c) unnamed_addr #0 align 2 !dbg !594 {
if.end.i.i.i:
  %buf = alloca [2 x i8], align 1
  tail call void @llvm.dbg.value(metadata %class.String* %this, i64 0, metadata !596, metadata !266), !dbg !603
  tail call void @llvm.dbg.value(metadata i8 %c, i64 0, metadata !597, metadata !266), !dbg !604
  tail call void @llvm.dbg.value(metadata %class.String* %this, i64 0, metadata !269, metadata !266), !dbg !605
  %buffer.i = getelementptr inbounds %class.String, %class.String* %this, i16 0, i32 0, !dbg !607
  store i8* null, i8** %buffer.i, align 1, !dbg !608, !tbaa !277
  %capacity.i = getelementptr inbounds %class.String, %class.String* %this, i16 0, i32 1, !dbg !609
  store i16 0, i16* %capacity.i, align 1, !dbg !610, !tbaa !285
  %len.i = getelementptr inbounds %class.String, %class.String* %this, i16 0, i32 2, !dbg !611
  store i16 0, i16* %len.i, align 1, !dbg !612, !tbaa !288
  %0 = getelementptr inbounds [2 x i8], [2 x i8]* %buf, i16 0, i16 0, !dbg !613
  call void @llvm.lifetime.start(i64 2, i8* nonnull %0) #10, !dbg !613
  tail call void @llvm.dbg.declare(metadata [2 x i8]* %buf, metadata !598, metadata !266), !dbg !614
  store i8 %c, i8* %0, align 1, !dbg !615, !tbaa !337
  %arrayidx2 = getelementptr inbounds [2 x i8], [2 x i8]* %buf, i16 0, i16 1, !dbg !616
  store i8 0, i8* %arrayidx2, align 1, !dbg !617, !tbaa !337
  tail call void @llvm.dbg.value(metadata %class.String* %this, i64 0, metadata !618, metadata !266) #10, !dbg !622
  tail call void @llvm.dbg.value(metadata i8* %0, i64 0, metadata !621, metadata !266) #10, !dbg !624
  %call.i = call i16 @strlen(i8* nonnull %0) #9, !dbg !625
  tail call void @llvm.dbg.value(metadata %class.String* %this, i64 0, metadata !294, metadata !266) #10, !dbg !628
  tail call void @llvm.dbg.value(metadata i8* %0, i64 0, metadata !297, metadata !266) #10, !dbg !631
  tail call void @llvm.dbg.value(metadata i16 %call.i, i64 0, metadata !298, metadata !266) #10, !dbg !632
  tail call void @llvm.dbg.value(metadata %class.String* %this, i64 0, metadata !304, metadata !266) #10, !dbg !633
  tail call void @llvm.dbg.value(metadata i16 %call.i, i64 0, metadata !307, metadata !266) #10, !dbg !635
  tail call void @llvm.dbg.value(metadata %class.String* %this, i64 0, metadata !312, metadata !266) #10, !dbg !636
  tail call void @llvm.dbg.value(metadata i16 %call.i, i64 0, metadata !315, metadata !266) #10, !dbg !638
  %add.i.i.i.i = add i16 %call.i, 1, !dbg !639
  %call.i.i.i.i = tail call noalias i8* @realloc(i8* null, i16 %add.i.i.i.i) #10, !dbg !640
  tail call void @llvm.dbg.value(metadata i8* %call.i.i.i.i, i64 0, metadata !316, metadata !266) #10, !dbg !641
  %tobool.i.i.i.i = icmp eq i8* %call.i.i.i.i, null, !dbg !642
  br i1 %tobool.i.i.i.i, label %if.then.i.i, label %if.then3.i.i.i, !dbg !643

if.then3.i.i.i:                                   ; preds = %if.end.i.i.i
  store i8* %call.i.i.i.i, i8** %buffer.i, align 1, !dbg !644, !tbaa !277
  store i16 %call.i, i16* %capacity.i, align 1, !dbg !645, !tbaa !285
  %1 = load i16, i16* %len.i, align 1, !dbg !646, !tbaa !288
  %cmp4.i.i.i = icmp eq i16 %1, 0, !dbg !647
  br i1 %cmp4.i.i.i, label %if.then5.i.i.i, label %if.end.i.i, !dbg !648

if.then5.i.i.i:                                   ; preds = %if.then3.i.i.i
  store i8 0, i8* %call.i.i.i.i, align 1, !dbg !649, !tbaa !337
  br label %if.end.i.i, !dbg !650

if.then.i.i:                                      ; preds = %if.end.i.i.i
  tail call void @llvm.dbg.value(metadata %class.String* %this, i64 0, metadata !339, metadata !266) #10, !dbg !651
  %2 = load i8*, i8** %buffer.i, align 1, !dbg !653, !tbaa !277
  %tobool.i5.i.i = icmp eq i8* %2, null, !dbg !653
  br i1 %tobool.i5.i.i, label %_ZN6String10invalidateEv.exit.i.i, label %if.then.i.i.i, !dbg !654

if.then.i.i.i:                                    ; preds = %if.then.i.i
  tail call void @free(i8* nonnull %2) #10, !dbg !655
  br label %_ZN6String10invalidateEv.exit.i.i, !dbg !655

_ZN6String10invalidateEv.exit.i.i:                ; preds = %if.then.i.i.i, %if.then.i.i
  store i8* null, i8** %buffer.i, align 1, !dbg !656, !tbaa !277
  store i16 0, i16* %len.i, align 1, !dbg !657, !tbaa !288
  store i16 0, i16* %capacity.i, align 1, !dbg !658, !tbaa !285
  br label %_ZN6StringaSEPKc.exit, !dbg !659

if.end.i.i:                                       ; preds = %if.then5.i.i.i, %if.then3.i.i.i
  store i16 %call.i, i16* %len.i, align 1, !dbg !660, !tbaa !288
  %call2.i.i = call i8* @strcpy(i8* nonnull %call.i.i.i.i, i8* nonnull %0) #10, !dbg !661
  br label %_ZN6StringaSEPKc.exit, !dbg !662

_ZN6StringaSEPKc.exit:                            ; preds = %_ZN6String10invalidateEv.exit.i.i, %if.end.i.i
  call void @llvm.lifetime.end(i64 2, i8* nonnull %0) #10, !dbg !663
  ret void, !dbg !663
}

; Function Attrs: argmemonly nounwind
declare void @llvm.lifetime.start(i64, i8* nocapture) #4

; Function Attrs: nounwind
define dereferenceable(6) %class.String* @_ZN6StringaSEPKc(%class.String* returned %this, i8* readonly %cstr) local_unnamed_addr #0 align 2 !dbg !619 {
entry:
  tail call void @llvm.dbg.value(metadata %class.String* %this, i64 0, metadata !618, metadata !266), !dbg !664
  tail call void @llvm.dbg.value(metadata i8* %cstr, i64 0, metadata !621, metadata !266), !dbg !665
  %tobool = icmp eq i8* %cstr, null, !dbg !666
  br i1 %tobool, label %if.else, label %if.then, !dbg !667

if.then:                                          ; preds = %entry
  %call = tail call i16 @strlen(i8* nonnull %cstr) #9, !dbg !668
  tail call void @llvm.dbg.value(metadata %class.String* %this, i64 0, metadata !294, metadata !266) #10, !dbg !669
  tail call void @llvm.dbg.value(metadata i8* %cstr, i64 0, metadata !297, metadata !266) #10, !dbg !671
  tail call void @llvm.dbg.value(metadata i16 %call, i64 0, metadata !298, metadata !266) #10, !dbg !672
  tail call void @llvm.dbg.value(metadata %class.String* %this, i64 0, metadata !304, metadata !266) #10, !dbg !673
  tail call void @llvm.dbg.value(metadata i16 %call, i64 0, metadata !307, metadata !266) #10, !dbg !675
  %buffer.i.i = getelementptr inbounds %class.String, %class.String* %this, i16 0, i32 0, !dbg !676
  %0 = load i8*, i8** %buffer.i.i, align 1, !dbg !676, !tbaa !277
  %tobool.i.i = icmp eq i8* %0, null, !dbg !676
  br i1 %tobool.i.i, label %if.end.i.i, label %land.lhs.true.i.i, !dbg !677

land.lhs.true.i.i:                                ; preds = %if.then
  %capacity.i.i = getelementptr inbounds %class.String, %class.String* %this, i16 0, i32 1, !dbg !678
  %1 = load i16, i16* %capacity.i.i, align 1, !dbg !678, !tbaa !285
  %cmp.i.i = icmp ult i16 %1, %call, !dbg !679
  br i1 %cmp.i.i, label %if.end.i.i, label %land.lhs.true.i.if.end_crit_edge.i, !dbg !680

land.lhs.true.i.if.end_crit_edge.i:               ; preds = %land.lhs.true.i.i
  %.pre.i = getelementptr inbounds %class.String, %class.String* %this, i16 0, i32 2, !dbg !681
  br label %if.end.i, !dbg !680

if.end.i.i:                                       ; preds = %land.lhs.true.i.i, %if.then
  tail call void @llvm.dbg.value(metadata %class.String* %this, i64 0, metadata !312, metadata !266) #10, !dbg !682
  tail call void @llvm.dbg.value(metadata i16 %call, i64 0, metadata !315, metadata !266) #10, !dbg !684
  %add.i.i.i = add i16 %call, 1, !dbg !685
  %call.i.i.i = tail call noalias i8* @realloc(i8* %0, i16 %add.i.i.i) #10, !dbg !686
  tail call void @llvm.dbg.value(metadata i8* %call.i.i.i, i64 0, metadata !316, metadata !266) #10, !dbg !687
  %tobool.i.i.i = icmp eq i8* %call.i.i.i, null, !dbg !688
  br i1 %tobool.i.i.i, label %if.then.i, label %if.then3.i.i, !dbg !689

if.then3.i.i:                                     ; preds = %if.end.i.i
  store i8* %call.i.i.i, i8** %buffer.i.i, align 1, !dbg !690, !tbaa !277
  %capacity.i.i.i = getelementptr inbounds %class.String, %class.String* %this, i16 0, i32 1, !dbg !691
  store i16 %call, i16* %capacity.i.i.i, align 1, !dbg !692, !tbaa !285
  %len.i.i = getelementptr inbounds %class.String, %class.String* %this, i16 0, i32 2, !dbg !693
  %2 = load i16, i16* %len.i.i, align 1, !dbg !693, !tbaa !288
  %cmp4.i.i = icmp eq i16 %2, 0, !dbg !694
  br i1 %cmp4.i.i, label %if.then5.i.i, label %if.end.i, !dbg !695

if.then5.i.i:                                     ; preds = %if.then3.i.i
  store i8 0, i8* %call.i.i.i, align 1, !dbg !696, !tbaa !337
  br label %if.end.i, !dbg !697

if.then.i:                                        ; preds = %if.end.i.i
  tail call void @llvm.dbg.value(metadata %class.String* %this, i64 0, metadata !339, metadata !266) #10, !dbg !698
  %3 = load i8*, i8** %buffer.i.i, align 1, !dbg !700, !tbaa !277
  %tobool.i5.i = icmp eq i8* %3, null, !dbg !700
  br i1 %tobool.i5.i, label %_ZN6String10invalidateEv.exit.i, label %if.then.i.i, !dbg !701

if.then.i.i:                                      ; preds = %if.then.i
  tail call void @free(i8* nonnull %3) #10, !dbg !702
  br label %_ZN6String10invalidateEv.exit.i, !dbg !702

_ZN6String10invalidateEv.exit.i:                  ; preds = %if.then.i.i, %if.then.i
  store i8* null, i8** %buffer.i.i, align 1, !dbg !703, !tbaa !277
  %len.i6.i = getelementptr inbounds %class.String, %class.String* %this, i16 0, i32 2, !dbg !704
  store i16 0, i16* %len.i6.i, align 1, !dbg !705, !tbaa !288
  %capacity.i7.i = getelementptr inbounds %class.String, %class.String* %this, i16 0, i32 1, !dbg !706
  store i16 0, i16* %capacity.i7.i, align 1, !dbg !707, !tbaa !285
  br label %if.end, !dbg !708

if.end.i:                                         ; preds = %if.then5.i.i, %if.then3.i.i, %land.lhs.true.i.if.end_crit_edge.i
  %len.pre-phi.i = phi i16* [ %.pre.i, %land.lhs.true.i.if.end_crit_edge.i ], [ %len.i.i, %if.then5.i.i ], [ %len.i.i, %if.then3.i.i ], !dbg !681
  %4 = phi i8* [ %0, %land.lhs.true.i.if.end_crit_edge.i ], [ %call.i.i.i, %if.then5.i.i ], [ %call.i.i.i, %if.then3.i.i ], !dbg !709
  store i16 %call, i16* %len.pre-phi.i, align 1, !dbg !710, !tbaa !288
  %call2.i = tail call i8* @strcpy(i8* nonnull %4, i8* nonnull %cstr) #10, !dbg !711
  br label %if.end, !dbg !712

if.else:                                          ; preds = %entry
  tail call void @llvm.dbg.value(metadata %class.String* %this, i64 0, metadata !339, metadata !266) #10, !dbg !713
  %buffer.i = getelementptr inbounds %class.String, %class.String* %this, i16 0, i32 0, !dbg !715
  %5 = load i8*, i8** %buffer.i, align 1, !dbg !715, !tbaa !277
  %tobool.i = icmp eq i8* %5, null, !dbg !715
  br i1 %tobool.i, label %_ZN6String10invalidateEv.exit, label %if.then.i5, !dbg !716

if.then.i5:                                       ; preds = %if.else
  tail call void @free(i8* nonnull %5) #10, !dbg !717
  br label %_ZN6String10invalidateEv.exit, !dbg !717

_ZN6String10invalidateEv.exit:                    ; preds = %if.else, %if.then.i5
  store i8* null, i8** %buffer.i, align 1, !dbg !718, !tbaa !277
  %len.i = getelementptr inbounds %class.String, %class.String* %this, i16 0, i32 2, !dbg !719
  store i16 0, i16* %len.i, align 1, !dbg !720, !tbaa !288
  %capacity.i = getelementptr inbounds %class.String, %class.String* %this, i16 0, i32 1, !dbg !721
  store i16 0, i16* %capacity.i, align 1, !dbg !722, !tbaa !285
  br label %if.end

if.end:                                           ; preds = %if.end.i, %_ZN6String10invalidateEv.exit.i, %_ZN6String10invalidateEv.exit
  ret %class.String* %this, !dbg !723
}

; Function Attrs: argmemonly nounwind
declare void @llvm.lifetime.end(i64, i8* nocapture) #4

define void @_ZN6StringC2Ehh(%class.String* nocapture %this, i8 zeroext %value, i8 zeroext %base) unnamed_addr #3 align 2 !dbg !724 {
entry:
  %buf = alloca [9 x i8], align 1
  tail call void @llvm.dbg.value(metadata %class.String* %this, i64 0, metadata !726, metadata !266), !dbg !734
  tail call void @llvm.dbg.value(metadata i8 %value, i64 0, metadata !727, metadata !266), !dbg !735
  tail call void @llvm.dbg.value(metadata i8 %base, i64 0, metadata !728, metadata !266), !dbg !736
  tail call void @llvm.dbg.value(metadata %class.String* %this, i64 0, metadata !269, metadata !266), !dbg !737
  %buffer.i = getelementptr inbounds %class.String, %class.String* %this, i16 0, i32 0, !dbg !739
  store i8* null, i8** %buffer.i, align 1, !dbg !740, !tbaa !277
  %capacity.i = getelementptr inbounds %class.String, %class.String* %this, i16 0, i32 1, !dbg !741
  store i16 0, i16* %capacity.i, align 1, !dbg !742, !tbaa !285
  %len.i = getelementptr inbounds %class.String, %class.String* %this, i16 0, i32 2, !dbg !743
  store i16 0, i16* %len.i, align 1, !dbg !744, !tbaa !288
  %0 = getelementptr inbounds [9 x i8], [9 x i8]* %buf, i16 0, i16 0, !dbg !745
  call void @llvm.lifetime.start(i64 9, i8* nonnull %0) #10, !dbg !745
  tail call void @llvm.dbg.declare(metadata [9 x i8]* %buf, metadata !729, metadata !266), !dbg !746
  %conv = zext i8 %value to i16, !dbg !747
  %conv2 = zext i8 %base to i16, !dbg !748
  tail call void @llvm.dbg.value(metadata i16 %conv, i64 0, metadata !749, metadata !266), !dbg !757
  tail call void @llvm.dbg.value(metadata i8* %0, i64 0, metadata !755, metadata !266), !dbg !759
  tail call void @llvm.dbg.value(metadata i16 %conv2, i64 0, metadata !756, metadata !266), !dbg !760
  %call.i5 = call i8* @__utoa(i16 %conv, i8* nonnull %0, i16 %conv2), !dbg !761
  call void @llvm.dbg.value(metadata %class.String* %this, i64 0, metadata !618, metadata !266) #10, !dbg !764
  call void @llvm.dbg.value(metadata i8* %0, i64 0, metadata !621, metadata !266) #10, !dbg !766
  %call.i = call i16 @strlen(i8* nonnull %0) #9, !dbg !767
  call void @llvm.dbg.value(metadata %class.String* %this, i64 0, metadata !294, metadata !266) #10, !dbg !768
  call void @llvm.dbg.value(metadata i8* %0, i64 0, metadata !297, metadata !266) #10, !dbg !770
  call void @llvm.dbg.value(metadata i16 %call.i, i64 0, metadata !298, metadata !266) #10, !dbg !771
  call void @llvm.dbg.value(metadata %class.String* %this, i64 0, metadata !304, metadata !266) #10, !dbg !772
  call void @llvm.dbg.value(metadata i16 %call.i, i64 0, metadata !307, metadata !266) #10, !dbg !774
  %1 = load i8*, i8** %buffer.i, align 1, !dbg !775, !tbaa !277
  %tobool.i.i.i = icmp eq i8* %1, null, !dbg !775
  br i1 %tobool.i.i.i, label %if.end.i.i.i, label %land.lhs.true.i.i.i, !dbg !776

land.lhs.true.i.i.i:                              ; preds = %entry
  %2 = load i16, i16* %capacity.i, align 1, !dbg !777, !tbaa !285
  %cmp.i.i.i = icmp ult i16 %2, %call.i, !dbg !778
  br i1 %cmp.i.i.i, label %if.end.i.i.i, label %if.end.i.i, !dbg !779

if.end.i.i.i:                                     ; preds = %land.lhs.true.i.i.i, %entry
  call void @llvm.dbg.value(metadata %class.String* %this, i64 0, metadata !312, metadata !266) #10, !dbg !780
  call void @llvm.dbg.value(metadata i16 %call.i, i64 0, metadata !315, metadata !266) #10, !dbg !782
  %add.i.i.i.i = add i16 %call.i, 1, !dbg !783
  %call.i.i.i.i = call noalias i8* @realloc(i8* %1, i16 %add.i.i.i.i) #10, !dbg !784
  call void @llvm.dbg.value(metadata i8* %call.i.i.i.i, i64 0, metadata !316, metadata !266) #10, !dbg !785
  %tobool.i.i.i.i = icmp eq i8* %call.i.i.i.i, null, !dbg !786
  br i1 %tobool.i.i.i.i, label %if.then.i.i, label %if.then3.i.i.i, !dbg !787

if.then3.i.i.i:                                   ; preds = %if.end.i.i.i
  store i8* %call.i.i.i.i, i8** %buffer.i, align 1, !dbg !788, !tbaa !277
  store i16 %call.i, i16* %capacity.i, align 1, !dbg !789, !tbaa !285
  %3 = load i16, i16* %len.i, align 1, !dbg !790, !tbaa !288
  %cmp4.i.i.i = icmp eq i16 %3, 0, !dbg !791
  br i1 %cmp4.i.i.i, label %if.then5.i.i.i, label %if.end.i.i, !dbg !792

if.then5.i.i.i:                                   ; preds = %if.then3.i.i.i
  store i8 0, i8* %call.i.i.i.i, align 1, !dbg !793, !tbaa !337
  br label %if.end.i.i, !dbg !794

if.then.i.i:                                      ; preds = %if.end.i.i.i
  call void @llvm.dbg.value(metadata %class.String* %this, i64 0, metadata !339, metadata !266) #10, !dbg !795
  %4 = load i8*, i8** %buffer.i, align 1, !dbg !797, !tbaa !277
  %tobool.i5.i.i = icmp eq i8* %4, null, !dbg !797
  br i1 %tobool.i5.i.i, label %_ZN6String10invalidateEv.exit.i.i, label %if.then.i.i.i, !dbg !798

if.then.i.i.i:                                    ; preds = %if.then.i.i
  call void @free(i8* nonnull %4) #10, !dbg !799
  br label %_ZN6String10invalidateEv.exit.i.i, !dbg !799

_ZN6String10invalidateEv.exit.i.i:                ; preds = %if.then.i.i.i, %if.then.i.i
  store i8* null, i8** %buffer.i, align 1, !dbg !800, !tbaa !277
  store i16 0, i16* %len.i, align 1, !dbg !801, !tbaa !288
  store i16 0, i16* %capacity.i, align 1, !dbg !802, !tbaa !285
  br label %_ZN6StringaSEPKc.exit, !dbg !803

if.end.i.i:                                       ; preds = %land.lhs.true.i.i.i, %if.then5.i.i.i, %if.then3.i.i.i
  %5 = phi i8* [ %call.i.i.i.i, %if.then5.i.i.i ], [ %call.i.i.i.i, %if.then3.i.i.i ], [ %1, %land.lhs.true.i.i.i ], !dbg !804
  store i16 %call.i, i16* %len.i, align 1, !dbg !805, !tbaa !288
  %call2.i.i = call i8* @strcpy(i8* nonnull %5, i8* nonnull %0) #10, !dbg !806
  br label %_ZN6StringaSEPKc.exit, !dbg !807

_ZN6StringaSEPKc.exit:                            ; preds = %_ZN6String10invalidateEv.exit.i.i, %if.end.i.i
  call void @llvm.lifetime.end(i64 9, i8* nonnull %0) #10, !dbg !808
  ret void, !dbg !808
}

define void @_ZN6StringC2Eih(%class.String* nocapture %this, i16 %value, i8 zeroext %base) unnamed_addr #3 align 2 !dbg !809 {
entry:
  %buf = alloca [18 x i8], align 1
  tail call void @llvm.dbg.value(metadata %class.String* %this, i64 0, metadata !811, metadata !266), !dbg !819
  tail call void @llvm.dbg.value(metadata i16 %value, i64 0, metadata !812, metadata !266), !dbg !820
  tail call void @llvm.dbg.value(metadata i8 %base, i64 0, metadata !813, metadata !266), !dbg !821
  tail call void @llvm.dbg.value(metadata %class.String* %this, i64 0, metadata !269, metadata !266), !dbg !822
  %buffer.i = getelementptr inbounds %class.String, %class.String* %this, i16 0, i32 0, !dbg !824
  store i8* null, i8** %buffer.i, align 1, !dbg !825, !tbaa !277
  %capacity.i = getelementptr inbounds %class.String, %class.String* %this, i16 0, i32 1, !dbg !826
  store i16 0, i16* %capacity.i, align 1, !dbg !827, !tbaa !285
  %len.i = getelementptr inbounds %class.String, %class.String* %this, i16 0, i32 2, !dbg !828
  store i16 0, i16* %len.i, align 1, !dbg !829, !tbaa !288
  %0 = getelementptr inbounds [18 x i8], [18 x i8]* %buf, i16 0, i16 0, !dbg !830
  call void @llvm.lifetime.start(i64 18, i8* nonnull %0) #10, !dbg !830
  tail call void @llvm.dbg.declare(metadata [18 x i8]* %buf, metadata !814, metadata !266), !dbg !831
  %conv = zext i8 %base to i16, !dbg !832
  tail call void @llvm.dbg.value(metadata i16 %value, i64 0, metadata !833, metadata !266), !dbg !840
  tail call void @llvm.dbg.value(metadata i8* %0, i64 0, metadata !838, metadata !266), !dbg !842
  tail call void @llvm.dbg.value(metadata i16 %conv, i64 0, metadata !839, metadata !266), !dbg !843
  %call.i4 = call i8* @__itoa(i16 %value, i8* nonnull %0, i16 %conv), !dbg !844
  call void @llvm.dbg.value(metadata %class.String* %this, i64 0, metadata !618, metadata !266) #10, !dbg !847
  call void @llvm.dbg.value(metadata i8* %0, i64 0, metadata !621, metadata !266) #10, !dbg !849
  %call.i = call i16 @strlen(i8* nonnull %0) #9, !dbg !850
  call void @llvm.dbg.value(metadata %class.String* %this, i64 0, metadata !294, metadata !266) #10, !dbg !851
  call void @llvm.dbg.value(metadata i8* %0, i64 0, metadata !297, metadata !266) #10, !dbg !853
  call void @llvm.dbg.value(metadata i16 %call.i, i64 0, metadata !298, metadata !266) #10, !dbg !854
  call void @llvm.dbg.value(metadata %class.String* %this, i64 0, metadata !304, metadata !266) #10, !dbg !855
  call void @llvm.dbg.value(metadata i16 %call.i, i64 0, metadata !307, metadata !266) #10, !dbg !857
  %1 = load i8*, i8** %buffer.i, align 1, !dbg !858, !tbaa !277
  %tobool.i.i.i = icmp eq i8* %1, null, !dbg !858
  br i1 %tobool.i.i.i, label %if.end.i.i.i, label %land.lhs.true.i.i.i, !dbg !859

land.lhs.true.i.i.i:                              ; preds = %entry
  %2 = load i16, i16* %capacity.i, align 1, !dbg !860, !tbaa !285
  %cmp.i.i.i = icmp ult i16 %2, %call.i, !dbg !861
  br i1 %cmp.i.i.i, label %if.end.i.i.i, label %if.end.i.i, !dbg !862

if.end.i.i.i:                                     ; preds = %land.lhs.true.i.i.i, %entry
  call void @llvm.dbg.value(metadata %class.String* %this, i64 0, metadata !312, metadata !266) #10, !dbg !863
  call void @llvm.dbg.value(metadata i16 %call.i, i64 0, metadata !315, metadata !266) #10, !dbg !865
  %add.i.i.i.i = add i16 %call.i, 1, !dbg !866
  %call.i.i.i.i = call noalias i8* @realloc(i8* %1, i16 %add.i.i.i.i) #10, !dbg !867
  call void @llvm.dbg.value(metadata i8* %call.i.i.i.i, i64 0, metadata !316, metadata !266) #10, !dbg !868
  %tobool.i.i.i.i = icmp eq i8* %call.i.i.i.i, null, !dbg !869
  br i1 %tobool.i.i.i.i, label %if.then.i.i, label %if.then3.i.i.i, !dbg !870

if.then3.i.i.i:                                   ; preds = %if.end.i.i.i
  store i8* %call.i.i.i.i, i8** %buffer.i, align 1, !dbg !871, !tbaa !277
  store i16 %call.i, i16* %capacity.i, align 1, !dbg !872, !tbaa !285
  %3 = load i16, i16* %len.i, align 1, !dbg !873, !tbaa !288
  %cmp4.i.i.i = icmp eq i16 %3, 0, !dbg !874
  br i1 %cmp4.i.i.i, label %if.then5.i.i.i, label %if.end.i.i, !dbg !875

if.then5.i.i.i:                                   ; preds = %if.then3.i.i.i
  store i8 0, i8* %call.i.i.i.i, align 1, !dbg !876, !tbaa !337
  br label %if.end.i.i, !dbg !877

if.then.i.i:                                      ; preds = %if.end.i.i.i
  call void @llvm.dbg.value(metadata %class.String* %this, i64 0, metadata !339, metadata !266) #10, !dbg !878
  %4 = load i8*, i8** %buffer.i, align 1, !dbg !880, !tbaa !277
  %tobool.i5.i.i = icmp eq i8* %4, null, !dbg !880
  br i1 %tobool.i5.i.i, label %_ZN6String10invalidateEv.exit.i.i, label %if.then.i.i.i, !dbg !881

if.then.i.i.i:                                    ; preds = %if.then.i.i
  call void @free(i8* nonnull %4) #10, !dbg !882
  br label %_ZN6String10invalidateEv.exit.i.i, !dbg !882

_ZN6String10invalidateEv.exit.i.i:                ; preds = %if.then.i.i.i, %if.then.i.i
  store i8* null, i8** %buffer.i, align 1, !dbg !883, !tbaa !277
  store i16 0, i16* %len.i, align 1, !dbg !884, !tbaa !288
  store i16 0, i16* %capacity.i, align 1, !dbg !885, !tbaa !285
  br label %_ZN6StringaSEPKc.exit, !dbg !886

if.end.i.i:                                       ; preds = %land.lhs.true.i.i.i, %if.then5.i.i.i, %if.then3.i.i.i
  %5 = phi i8* [ %call.i.i.i.i, %if.then5.i.i.i ], [ %call.i.i.i.i, %if.then3.i.i.i ], [ %1, %land.lhs.true.i.i.i ], !dbg !887
  store i16 %call.i, i16* %len.i, align 1, !dbg !888, !tbaa !288
  %call2.i.i = call i8* @strcpy(i8* nonnull %5, i8* nonnull %0) #10, !dbg !889
  br label %_ZN6StringaSEPKc.exit, !dbg !890

_ZN6StringaSEPKc.exit:                            ; preds = %_ZN6String10invalidateEv.exit.i.i, %if.end.i.i
  call void @llvm.lifetime.end(i64 18, i8* nonnull %0) #10, !dbg !891
  ret void, !dbg !891
}

define void @_ZN6StringC2Ejh(%class.String* nocapture %this, i16 %value, i8 zeroext %base) unnamed_addr #3 align 2 !dbg !892 {
entry:
  %buf = alloca [17 x i8], align 1
  tail call void @llvm.dbg.value(metadata %class.String* %this, i64 0, metadata !894, metadata !266), !dbg !902
  tail call void @llvm.dbg.value(metadata i16 %value, i64 0, metadata !895, metadata !266), !dbg !903
  tail call void @llvm.dbg.value(metadata i8 %base, i64 0, metadata !896, metadata !266), !dbg !904
  tail call void @llvm.dbg.value(metadata %class.String* %this, i64 0, metadata !269, metadata !266), !dbg !905
  %buffer.i = getelementptr inbounds %class.String, %class.String* %this, i16 0, i32 0, !dbg !907
  store i8* null, i8** %buffer.i, align 1, !dbg !908, !tbaa !277
  %capacity.i = getelementptr inbounds %class.String, %class.String* %this, i16 0, i32 1, !dbg !909
  store i16 0, i16* %capacity.i, align 1, !dbg !910, !tbaa !285
  %len.i = getelementptr inbounds %class.String, %class.String* %this, i16 0, i32 2, !dbg !911
  store i16 0, i16* %len.i, align 1, !dbg !912, !tbaa !288
  %0 = getelementptr inbounds [17 x i8], [17 x i8]* %buf, i16 0, i16 0, !dbg !913
  call void @llvm.lifetime.start(i64 17, i8* nonnull %0) #10, !dbg !913
  tail call void @llvm.dbg.declare(metadata [17 x i8]* %buf, metadata !897, metadata !266), !dbg !914
  %conv = zext i8 %base to i16, !dbg !915
  tail call void @llvm.dbg.value(metadata i16 %value, i64 0, metadata !749, metadata !266), !dbg !916
  tail call void @llvm.dbg.value(metadata i8* %0, i64 0, metadata !755, metadata !266), !dbg !918
  tail call void @llvm.dbg.value(metadata i16 %conv, i64 0, metadata !756, metadata !266), !dbg !919
  %call.i4 = call i8* @__utoa(i16 %value, i8* nonnull %0, i16 %conv), !dbg !920
  call void @llvm.dbg.value(metadata %class.String* %this, i64 0, metadata !618, metadata !266) #10, !dbg !921
  call void @llvm.dbg.value(metadata i8* %0, i64 0, metadata !621, metadata !266) #10, !dbg !923
  %call.i = call i16 @strlen(i8* nonnull %0) #9, !dbg !924
  call void @llvm.dbg.value(metadata %class.String* %this, i64 0, metadata !294, metadata !266) #10, !dbg !925
  call void @llvm.dbg.value(metadata i8* %0, i64 0, metadata !297, metadata !266) #10, !dbg !927
  call void @llvm.dbg.value(metadata i16 %call.i, i64 0, metadata !298, metadata !266) #10, !dbg !928
  call void @llvm.dbg.value(metadata %class.String* %this, i64 0, metadata !304, metadata !266) #10, !dbg !929
  call void @llvm.dbg.value(metadata i16 %call.i, i64 0, metadata !307, metadata !266) #10, !dbg !931
  %1 = load i8*, i8** %buffer.i, align 1, !dbg !932, !tbaa !277
  %tobool.i.i.i = icmp eq i8* %1, null, !dbg !932
  br i1 %tobool.i.i.i, label %if.end.i.i.i, label %land.lhs.true.i.i.i, !dbg !933

land.lhs.true.i.i.i:                              ; preds = %entry
  %2 = load i16, i16* %capacity.i, align 1, !dbg !934, !tbaa !285
  %cmp.i.i.i = icmp ult i16 %2, %call.i, !dbg !935
  br i1 %cmp.i.i.i, label %if.end.i.i.i, label %if.end.i.i, !dbg !936

if.end.i.i.i:                                     ; preds = %land.lhs.true.i.i.i, %entry
  call void @llvm.dbg.value(metadata %class.String* %this, i64 0, metadata !312, metadata !266) #10, !dbg !937
  call void @llvm.dbg.value(metadata i16 %call.i, i64 0, metadata !315, metadata !266) #10, !dbg !939
  %add.i.i.i.i = add i16 %call.i, 1, !dbg !940
  %call.i.i.i.i = call noalias i8* @realloc(i8* %1, i16 %add.i.i.i.i) #10, !dbg !941
  call void @llvm.dbg.value(metadata i8* %call.i.i.i.i, i64 0, metadata !316, metadata !266) #10, !dbg !942
  %tobool.i.i.i.i = icmp eq i8* %call.i.i.i.i, null, !dbg !943
  br i1 %tobool.i.i.i.i, label %if.then.i.i, label %if.then3.i.i.i, !dbg !944

if.then3.i.i.i:                                   ; preds = %if.end.i.i.i
  store i8* %call.i.i.i.i, i8** %buffer.i, align 1, !dbg !945, !tbaa !277
  store i16 %call.i, i16* %capacity.i, align 1, !dbg !946, !tbaa !285
  %3 = load i16, i16* %len.i, align 1, !dbg !947, !tbaa !288
  %cmp4.i.i.i = icmp eq i16 %3, 0, !dbg !948
  br i1 %cmp4.i.i.i, label %if.then5.i.i.i, label %if.end.i.i, !dbg !949

if.then5.i.i.i:                                   ; preds = %if.then3.i.i.i
  store i8 0, i8* %call.i.i.i.i, align 1, !dbg !950, !tbaa !337
  br label %if.end.i.i, !dbg !951

if.then.i.i:                                      ; preds = %if.end.i.i.i
  call void @llvm.dbg.value(metadata %class.String* %this, i64 0, metadata !339, metadata !266) #10, !dbg !952
  %4 = load i8*, i8** %buffer.i, align 1, !dbg !954, !tbaa !277
  %tobool.i5.i.i = icmp eq i8* %4, null, !dbg !954
  br i1 %tobool.i5.i.i, label %_ZN6String10invalidateEv.exit.i.i, label %if.then.i.i.i, !dbg !955

if.then.i.i.i:                                    ; preds = %if.then.i.i
  call void @free(i8* nonnull %4) #10, !dbg !956
  br label %_ZN6String10invalidateEv.exit.i.i, !dbg !956

_ZN6String10invalidateEv.exit.i.i:                ; preds = %if.then.i.i.i, %if.then.i.i
  store i8* null, i8** %buffer.i, align 1, !dbg !957, !tbaa !277
  store i16 0, i16* %len.i, align 1, !dbg !958, !tbaa !288
  store i16 0, i16* %capacity.i, align 1, !dbg !959, !tbaa !285
  br label %_ZN6StringaSEPKc.exit, !dbg !960

if.end.i.i:                                       ; preds = %land.lhs.true.i.i.i, %if.then5.i.i.i, %if.then3.i.i.i
  %5 = phi i8* [ %call.i.i.i.i, %if.then5.i.i.i ], [ %call.i.i.i.i, %if.then3.i.i.i ], [ %1, %land.lhs.true.i.i.i ], !dbg !961
  store i16 %call.i, i16* %len.i, align 1, !dbg !962, !tbaa !288
  %call2.i.i = call i8* @strcpy(i8* nonnull %5, i8* nonnull %0) #10, !dbg !963
  br label %_ZN6StringaSEPKc.exit, !dbg !964

_ZN6StringaSEPKc.exit:                            ; preds = %_ZN6String10invalidateEv.exit.i.i, %if.end.i.i
  call void @llvm.lifetime.end(i64 17, i8* nonnull %0) #10, !dbg !965
  ret void, !dbg !965
}

define void @_ZN6StringC2Elh(%class.String* nocapture %this, i32 %value, i8 zeroext %base) unnamed_addr #3 align 2 !dbg !966 {
entry:
  %buf = alloca [34 x i8], align 1
  tail call void @llvm.dbg.value(metadata %class.String* %this, i64 0, metadata !968, metadata !266), !dbg !976
  tail call void @llvm.dbg.value(metadata i32 %value, i64 0, metadata !969, metadata !266), !dbg !977
  tail call void @llvm.dbg.value(metadata i8 %base, i64 0, metadata !970, metadata !266), !dbg !978
  tail call void @llvm.dbg.value(metadata %class.String* %this, i64 0, metadata !269, metadata !266), !dbg !979
  %buffer.i = getelementptr inbounds %class.String, %class.String* %this, i16 0, i32 0, !dbg !981
  store i8* null, i8** %buffer.i, align 1, !dbg !982, !tbaa !277
  %capacity.i = getelementptr inbounds %class.String, %class.String* %this, i16 0, i32 1, !dbg !983
  store i16 0, i16* %capacity.i, align 1, !dbg !984, !tbaa !285
  %len.i = getelementptr inbounds %class.String, %class.String* %this, i16 0, i32 2, !dbg !985
  store i16 0, i16* %len.i, align 1, !dbg !986, !tbaa !288
  %0 = getelementptr inbounds [34 x i8], [34 x i8]* %buf, i16 0, i16 0, !dbg !987
  call void @llvm.lifetime.start(i64 34, i8* nonnull %0) #10, !dbg !987
  tail call void @llvm.dbg.declare(metadata [34 x i8]* %buf, metadata !971, metadata !266), !dbg !988
  %conv = zext i8 %base to i16, !dbg !989
  tail call void @llvm.dbg.value(metadata i32 %value, i64 0, metadata !990, metadata !266), !dbg !997
  tail call void @llvm.dbg.value(metadata i8* %0, i64 0, metadata !995, metadata !266), !dbg !999
  tail call void @llvm.dbg.value(metadata i16 %conv, i64 0, metadata !996, metadata !266), !dbg !1000
  %call.i4 = call i8* @__ltoa(i32 %value, i8* nonnull %0, i16 %conv), !dbg !1001
  call void @llvm.dbg.value(metadata %class.String* %this, i64 0, metadata !618, metadata !266) #10, !dbg !1004
  call void @llvm.dbg.value(metadata i8* %0, i64 0, metadata !621, metadata !266) #10, !dbg !1006
  %call.i = call i16 @strlen(i8* nonnull %0) #9, !dbg !1007
  call void @llvm.dbg.value(metadata %class.String* %this, i64 0, metadata !294, metadata !266) #10, !dbg !1008
  call void @llvm.dbg.value(metadata i8* %0, i64 0, metadata !297, metadata !266) #10, !dbg !1010
  call void @llvm.dbg.value(metadata i16 %call.i, i64 0, metadata !298, metadata !266) #10, !dbg !1011
  call void @llvm.dbg.value(metadata %class.String* %this, i64 0, metadata !304, metadata !266) #10, !dbg !1012
  call void @llvm.dbg.value(metadata i16 %call.i, i64 0, metadata !307, metadata !266) #10, !dbg !1014
  %1 = load i8*, i8** %buffer.i, align 1, !dbg !1015, !tbaa !277
  %tobool.i.i.i = icmp eq i8* %1, null, !dbg !1015
  br i1 %tobool.i.i.i, label %if.end.i.i.i, label %land.lhs.true.i.i.i, !dbg !1016

land.lhs.true.i.i.i:                              ; preds = %entry
  %2 = load i16, i16* %capacity.i, align 1, !dbg !1017, !tbaa !285
  %cmp.i.i.i = icmp ult i16 %2, %call.i, !dbg !1018
  br i1 %cmp.i.i.i, label %if.end.i.i.i, label %if.end.i.i, !dbg !1019

if.end.i.i.i:                                     ; preds = %land.lhs.true.i.i.i, %entry
  call void @llvm.dbg.value(metadata %class.String* %this, i64 0, metadata !312, metadata !266) #10, !dbg !1020
  call void @llvm.dbg.value(metadata i16 %call.i, i64 0, metadata !315, metadata !266) #10, !dbg !1022
  %add.i.i.i.i = add i16 %call.i, 1, !dbg !1023
  %call.i.i.i.i = call noalias i8* @realloc(i8* %1, i16 %add.i.i.i.i) #10, !dbg !1024
  call void @llvm.dbg.value(metadata i8* %call.i.i.i.i, i64 0, metadata !316, metadata !266) #10, !dbg !1025
  %tobool.i.i.i.i = icmp eq i8* %call.i.i.i.i, null, !dbg !1026
  br i1 %tobool.i.i.i.i, label %if.then.i.i, label %if.then3.i.i.i, !dbg !1027

if.then3.i.i.i:                                   ; preds = %if.end.i.i.i
  store i8* %call.i.i.i.i, i8** %buffer.i, align 1, !dbg !1028, !tbaa !277
  store i16 %call.i, i16* %capacity.i, align 1, !dbg !1029, !tbaa !285
  %3 = load i16, i16* %len.i, align 1, !dbg !1030, !tbaa !288
  %cmp4.i.i.i = icmp eq i16 %3, 0, !dbg !1031
  br i1 %cmp4.i.i.i, label %if.then5.i.i.i, label %if.end.i.i, !dbg !1032

if.then5.i.i.i:                                   ; preds = %if.then3.i.i.i
  store i8 0, i8* %call.i.i.i.i, align 1, !dbg !1033, !tbaa !337
  br label %if.end.i.i, !dbg !1034

if.then.i.i:                                      ; preds = %if.end.i.i.i
  call void @llvm.dbg.value(metadata %class.String* %this, i64 0, metadata !339, metadata !266) #10, !dbg !1035
  %4 = load i8*, i8** %buffer.i, align 1, !dbg !1037, !tbaa !277
  %tobool.i5.i.i = icmp eq i8* %4, null, !dbg !1037
  br i1 %tobool.i5.i.i, label %_ZN6String10invalidateEv.exit.i.i, label %if.then.i.i.i, !dbg !1038

if.then.i.i.i:                                    ; preds = %if.then.i.i
  call void @free(i8* nonnull %4) #10, !dbg !1039
  br label %_ZN6String10invalidateEv.exit.i.i, !dbg !1039

_ZN6String10invalidateEv.exit.i.i:                ; preds = %if.then.i.i.i, %if.then.i.i
  store i8* null, i8** %buffer.i, align 1, !dbg !1040, !tbaa !277
  store i16 0, i16* %len.i, align 1, !dbg !1041, !tbaa !288
  store i16 0, i16* %capacity.i, align 1, !dbg !1042, !tbaa !285
  br label %_ZN6StringaSEPKc.exit, !dbg !1043

if.end.i.i:                                       ; preds = %land.lhs.true.i.i.i, %if.then5.i.i.i, %if.then3.i.i.i
  %5 = phi i8* [ %call.i.i.i.i, %if.then5.i.i.i ], [ %call.i.i.i.i, %if.then3.i.i.i ], [ %1, %land.lhs.true.i.i.i ], !dbg !1044
  store i16 %call.i, i16* %len.i, align 1, !dbg !1045, !tbaa !288
  %call2.i.i = call i8* @strcpy(i8* nonnull %5, i8* nonnull %0) #10, !dbg !1046
  br label %_ZN6StringaSEPKc.exit, !dbg !1047

_ZN6StringaSEPKc.exit:                            ; preds = %_ZN6String10invalidateEv.exit.i.i, %if.end.i.i
  call void @llvm.lifetime.end(i64 34, i8* nonnull %0) #10, !dbg !1048
  ret void, !dbg !1048
}

define void @_ZN6StringC2Emh(%class.String* nocapture %this, i32 %value, i8 zeroext %base) unnamed_addr #3 align 2 !dbg !1049 {
entry:
  %buf = alloca [33 x i8], align 1
  tail call void @llvm.dbg.value(metadata %class.String* %this, i64 0, metadata !1051, metadata !266), !dbg !1059
  tail call void @llvm.dbg.value(metadata i32 %value, i64 0, metadata !1052, metadata !266), !dbg !1060
  tail call void @llvm.dbg.value(metadata i8 %base, i64 0, metadata !1053, metadata !266), !dbg !1061
  tail call void @llvm.dbg.value(metadata %class.String* %this, i64 0, metadata !269, metadata !266), !dbg !1062
  %buffer.i = getelementptr inbounds %class.String, %class.String* %this, i16 0, i32 0, !dbg !1064
  store i8* null, i8** %buffer.i, align 1, !dbg !1065, !tbaa !277
  %capacity.i = getelementptr inbounds %class.String, %class.String* %this, i16 0, i32 1, !dbg !1066
  store i16 0, i16* %capacity.i, align 1, !dbg !1067, !tbaa !285
  %len.i = getelementptr inbounds %class.String, %class.String* %this, i16 0, i32 2, !dbg !1068
  store i16 0, i16* %len.i, align 1, !dbg !1069, !tbaa !288
  %0 = getelementptr inbounds [33 x i8], [33 x i8]* %buf, i16 0, i16 0, !dbg !1070
  call void @llvm.lifetime.start(i64 33, i8* nonnull %0) #10, !dbg !1070
  tail call void @llvm.dbg.declare(metadata [33 x i8]* %buf, metadata !1054, metadata !266), !dbg !1071
  %conv = zext i8 %base to i16, !dbg !1072
  tail call void @llvm.dbg.value(metadata i32 %value, i64 0, metadata !1073, metadata !266), !dbg !1080
  tail call void @llvm.dbg.value(metadata i8* %0, i64 0, metadata !1078, metadata !266), !dbg !1082
  tail call void @llvm.dbg.value(metadata i16 %conv, i64 0, metadata !1079, metadata !266), !dbg !1083
  %call.i4 = call i8* @__ultoa(i32 %value, i8* nonnull %0, i16 %conv), !dbg !1084
  call void @llvm.dbg.value(metadata %class.String* %this, i64 0, metadata !618, metadata !266) #10, !dbg !1087
  call void @llvm.dbg.value(metadata i8* %0, i64 0, metadata !621, metadata !266) #10, !dbg !1089
  %call.i = call i16 @strlen(i8* nonnull %0) #9, !dbg !1090
  call void @llvm.dbg.value(metadata %class.String* %this, i64 0, metadata !294, metadata !266) #10, !dbg !1091
  call void @llvm.dbg.value(metadata i8* %0, i64 0, metadata !297, metadata !266) #10, !dbg !1093
  call void @llvm.dbg.value(metadata i16 %call.i, i64 0, metadata !298, metadata !266) #10, !dbg !1094
  call void @llvm.dbg.value(metadata %class.String* %this, i64 0, metadata !304, metadata !266) #10, !dbg !1095
  call void @llvm.dbg.value(metadata i16 %call.i, i64 0, metadata !307, metadata !266) #10, !dbg !1097
  %1 = load i8*, i8** %buffer.i, align 1, !dbg !1098, !tbaa !277
  %tobool.i.i.i = icmp eq i8* %1, null, !dbg !1098
  br i1 %tobool.i.i.i, label %if.end.i.i.i, label %land.lhs.true.i.i.i, !dbg !1099

land.lhs.true.i.i.i:                              ; preds = %entry
  %2 = load i16, i16* %capacity.i, align 1, !dbg !1100, !tbaa !285
  %cmp.i.i.i = icmp ult i16 %2, %call.i, !dbg !1101
  br i1 %cmp.i.i.i, label %if.end.i.i.i, label %if.end.i.i, !dbg !1102

if.end.i.i.i:                                     ; preds = %land.lhs.true.i.i.i, %entry
  call void @llvm.dbg.value(metadata %class.String* %this, i64 0, metadata !312, metadata !266) #10, !dbg !1103
  call void @llvm.dbg.value(metadata i16 %call.i, i64 0, metadata !315, metadata !266) #10, !dbg !1105
  %add.i.i.i.i = add i16 %call.i, 1, !dbg !1106
  %call.i.i.i.i = call noalias i8* @realloc(i8* %1, i16 %add.i.i.i.i) #10, !dbg !1107
  call void @llvm.dbg.value(metadata i8* %call.i.i.i.i, i64 0, metadata !316, metadata !266) #10, !dbg !1108
  %tobool.i.i.i.i = icmp eq i8* %call.i.i.i.i, null, !dbg !1109
  br i1 %tobool.i.i.i.i, label %if.then.i.i, label %if.then3.i.i.i, !dbg !1110

if.then3.i.i.i:                                   ; preds = %if.end.i.i.i
  store i8* %call.i.i.i.i, i8** %buffer.i, align 1, !dbg !1111, !tbaa !277
  store i16 %call.i, i16* %capacity.i, align 1, !dbg !1112, !tbaa !285
  %3 = load i16, i16* %len.i, align 1, !dbg !1113, !tbaa !288
  %cmp4.i.i.i = icmp eq i16 %3, 0, !dbg !1114
  br i1 %cmp4.i.i.i, label %if.then5.i.i.i, label %if.end.i.i, !dbg !1115

if.then5.i.i.i:                                   ; preds = %if.then3.i.i.i
  store i8 0, i8* %call.i.i.i.i, align 1, !dbg !1116, !tbaa !337
  br label %if.end.i.i, !dbg !1117

if.then.i.i:                                      ; preds = %if.end.i.i.i
  call void @llvm.dbg.value(metadata %class.String* %this, i64 0, metadata !339, metadata !266) #10, !dbg !1118
  %4 = load i8*, i8** %buffer.i, align 1, !dbg !1120, !tbaa !277
  %tobool.i5.i.i = icmp eq i8* %4, null, !dbg !1120
  br i1 %tobool.i5.i.i, label %_ZN6String10invalidateEv.exit.i.i, label %if.then.i.i.i, !dbg !1121

if.then.i.i.i:                                    ; preds = %if.then.i.i
  call void @free(i8* nonnull %4) #10, !dbg !1122
  br label %_ZN6String10invalidateEv.exit.i.i, !dbg !1122

_ZN6String10invalidateEv.exit.i.i:                ; preds = %if.then.i.i.i, %if.then.i.i
  store i8* null, i8** %buffer.i, align 1, !dbg !1123, !tbaa !277
  store i16 0, i16* %len.i, align 1, !dbg !1124, !tbaa !288
  store i16 0, i16* %capacity.i, align 1, !dbg !1125, !tbaa !285
  br label %_ZN6StringaSEPKc.exit, !dbg !1126

if.end.i.i:                                       ; preds = %land.lhs.true.i.i.i, %if.then5.i.i.i, %if.then3.i.i.i
  %5 = phi i8* [ %call.i.i.i.i, %if.then5.i.i.i ], [ %call.i.i.i.i, %if.then3.i.i.i ], [ %1, %land.lhs.true.i.i.i ], !dbg !1127
  store i16 %call.i, i16* %len.i, align 1, !dbg !1128, !tbaa !288
  %call2.i.i = call i8* @strcpy(i8* nonnull %5, i8* nonnull %0) #10, !dbg !1129
  br label %_ZN6StringaSEPKc.exit, !dbg !1130

_ZN6StringaSEPKc.exit:                            ; preds = %_ZN6String10invalidateEv.exit.i.i, %if.end.i.i
  call void @llvm.lifetime.end(i64 33, i8* nonnull %0) #10, !dbg !1131
  ret void, !dbg !1131
}

define void @_ZN6StringC2Efh(%class.String* %this, float %value, i8 zeroext %decimalPlaces) unnamed_addr #3 align 2 !dbg !1132 {
entry:
  %buf = alloca [33 x i8], align 1
  tail call void @llvm.dbg.value(metadata %class.String* %this, i64 0, metadata !1134, metadata !266), !dbg !1139
  tail call void @llvm.dbg.value(metadata float %value, i64 0, metadata !1135, metadata !266), !dbg !1140
  tail call void @llvm.dbg.value(metadata i8 %decimalPlaces, i64 0, metadata !1136, metadata !266), !dbg !1141
  tail call void @llvm.dbg.value(metadata %class.String* %this, i64 0, metadata !269, metadata !266), !dbg !1142
  %buffer.i = getelementptr inbounds %class.String, %class.String* %this, i16 0, i32 0, !dbg !1144
  store i8* null, i8** %buffer.i, align 1, !dbg !1145, !tbaa !277
  %capacity.i = getelementptr inbounds %class.String, %class.String* %this, i16 0, i32 1, !dbg !1146
  store i16 0, i16* %capacity.i, align 1, !dbg !1147, !tbaa !285
  %len.i = getelementptr inbounds %class.String, %class.String* %this, i16 0, i32 2, !dbg !1148
  store i16 0, i16* %len.i, align 1, !dbg !1149, !tbaa !288
  %0 = getelementptr inbounds [33 x i8], [33 x i8]* %buf, i16 0, i16 0, !dbg !1150
  call void @llvm.lifetime.start(i64 33, i8* nonnull %0) #10, !dbg !1150
  tail call void @llvm.dbg.declare(metadata [33 x i8]* %buf, metadata !1137, metadata !266), !dbg !1151
  %add = add i8 %decimalPlaces, 2, !dbg !1152
  %call = call i8* @dtostrf(float %value, i8 signext %add, i8 zeroext %decimalPlaces, i8* nonnull %0), !dbg !1153
  %call3 = call dereferenceable(6) %class.String* @_ZN6StringaSEPKc(%class.String* %this, i8* %call), !dbg !1154
  call void @llvm.lifetime.end(i64 33, i8* nonnull %0) #10, !dbg !1156
  ret void, !dbg !1156
}

declare i8* @dtostrf(float, i8 signext, i8 zeroext, i8*) local_unnamed_addr #5

define void @_ZN6StringC2Edh(%class.String* %this, float %value, i8 zeroext %decimalPlaces) unnamed_addr #3 align 2 !dbg !1157 {
entry:
  %buf = alloca [33 x i8], align 1
  tail call void @llvm.dbg.value(metadata %class.String* %this, i64 0, metadata !1159, metadata !266), !dbg !1164
  tail call void @llvm.dbg.value(metadata float %value, i64 0, metadata !1160, metadata !266), !dbg !1165
  tail call void @llvm.dbg.value(metadata i8 %decimalPlaces, i64 0, metadata !1161, metadata !266), !dbg !1166
  tail call void @llvm.dbg.value(metadata %class.String* %this, i64 0, metadata !269, metadata !266), !dbg !1167
  %buffer.i = getelementptr inbounds %class.String, %class.String* %this, i16 0, i32 0, !dbg !1169
  store i8* null, i8** %buffer.i, align 1, !dbg !1170, !tbaa !277
  %capacity.i = getelementptr inbounds %class.String, %class.String* %this, i16 0, i32 1, !dbg !1171
  store i16 0, i16* %capacity.i, align 1, !dbg !1172, !tbaa !285
  %len.i = getelementptr inbounds %class.String, %class.String* %this, i16 0, i32 2, !dbg !1173
  store i16 0, i16* %len.i, align 1, !dbg !1174, !tbaa !288
  %0 = getelementptr inbounds [33 x i8], [33 x i8]* %buf, i16 0, i16 0, !dbg !1175
  call void @llvm.lifetime.start(i64 33, i8* nonnull %0) #10, !dbg !1175
  tail call void @llvm.dbg.declare(metadata [33 x i8]* %buf, metadata !1162, metadata !266), !dbg !1176
  %add = add i8 %decimalPlaces, 2, !dbg !1177
  %call = call i8* @dtostrf(float %value, i8 signext %add, i8 zeroext %decimalPlaces, i8* nonnull %0), !dbg !1178
  %call3 = call dereferenceable(6) %class.String* @_ZN6StringaSEPKc(%class.String* %this, i8* %call), !dbg !1179
  call void @llvm.lifetime.end(i64 33, i8* nonnull %0) #10, !dbg !1181
  ret void, !dbg !1181
}

; Function Attrs: nounwind
define void @_ZN6StringD2Ev(%class.String* nocapture readonly %this) unnamed_addr #0 align 2 !dbg !1182 {
entry:
  tail call void @llvm.dbg.value(metadata %class.String* %this, i64 0, metadata !1184, metadata !266), !dbg !1185
  %buffer = getelementptr inbounds %class.String, %class.String* %this, i16 0, i32 0, !dbg !1186
  %0 = load i8*, i8** %buffer, align 1, !dbg !1186, !tbaa !277
  tail call void @free(i8* %0), !dbg !1188
  ret void, !dbg !1189
}

; Function Attrs: nounwind
declare void @free(i8* nocapture) local_unnamed_addr #6

; Function Attrs: nounwind
define void @_ZN6String10invalidateEv(%class.String* nocapture %this) local_unnamed_addr #0 align 2 !dbg !340 {
entry:
  tail call void @llvm.dbg.value(metadata %class.String* %this, i64 0, metadata !339, metadata !266), !dbg !1190
  %buffer = getelementptr inbounds %class.String, %class.String* %this, i16 0, i32 0, !dbg !1191
  %0 = load i8*, i8** %buffer, align 1, !dbg !1191, !tbaa !277
  %tobool = icmp eq i8* %0, null, !dbg !1191
  br i1 %tobool, label %if.end, label %if.then, !dbg !1192

if.then:                                          ; preds = %entry
  tail call void @free(i8* nonnull %0), !dbg !1193
  br label %if.end, !dbg !1193

if.end:                                           ; preds = %entry, %if.then
  store i8* null, i8** %buffer, align 1, !dbg !1194, !tbaa !277
  %len = getelementptr inbounds %class.String, %class.String* %this, i16 0, i32 2, !dbg !1195
  store i16 0, i16* %len, align 1, !dbg !1196, !tbaa !288
  %capacity = getelementptr inbounds %class.String, %class.String* %this, i16 0, i32 1, !dbg !1197
  store i16 0, i16* %capacity, align 1, !dbg !1198, !tbaa !285
  ret void, !dbg !1199
}

; Function Attrs: nounwind
define zeroext i8 @_ZN6String7reserveEj(%class.String* nocapture %this, i16 %size) local_unnamed_addr #0 align 2 !dbg !305 {
entry:
  tail call void @llvm.dbg.value(metadata %class.String* %this, i64 0, metadata !304, metadata !266), !dbg !1200
  tail call void @llvm.dbg.value(metadata i16 %size, i64 0, metadata !307, metadata !266), !dbg !1201
  %buffer = getelementptr inbounds %class.String, %class.String* %this, i16 0, i32 0, !dbg !1202
  %0 = load i8*, i8** %buffer, align 1, !dbg !1202, !tbaa !277
  %tobool = icmp eq i8* %0, null, !dbg !1202
  br i1 %tobool, label %if.end, label %land.lhs.true, !dbg !1203

land.lhs.true:                                    ; preds = %entry
  %capacity = getelementptr inbounds %class.String, %class.String* %this, i16 0, i32 1, !dbg !1204
  %1 = load i16, i16* %capacity, align 1, !dbg !1204, !tbaa !285
  %cmp = icmp ult i16 %1, %size, !dbg !1205
  br i1 %cmp, label %if.end, label %return, !dbg !1206

if.end:                                           ; preds = %land.lhs.true, %entry
  tail call void @llvm.dbg.value(metadata %class.String* %this, i64 0, metadata !312, metadata !266) #10, !dbg !1207
  tail call void @llvm.dbg.value(metadata i16 %size, i64 0, metadata !315, metadata !266) #10, !dbg !1209
  %add.i = add i16 %size, 1, !dbg !1210
  %call.i = tail call noalias i8* @realloc(i8* %0, i16 %add.i) #10, !dbg !1211
  tail call void @llvm.dbg.value(metadata i8* %call.i, i64 0, metadata !316, metadata !266) #10, !dbg !1212
  %tobool.i = icmp eq i8* %call.i, null, !dbg !1213
  br i1 %tobool.i, label %return, label %if.then3, !dbg !1214

if.then3:                                         ; preds = %if.end
  store i8* %call.i, i8** %buffer, align 1, !dbg !1215, !tbaa !277
  %capacity.i = getelementptr inbounds %class.String, %class.String* %this, i16 0, i32 1, !dbg !1216
  store i16 %size, i16* %capacity.i, align 1, !dbg !1217, !tbaa !285
  %len = getelementptr inbounds %class.String, %class.String* %this, i16 0, i32 2, !dbg !1218
  %2 = load i16, i16* %len, align 1, !dbg !1218, !tbaa !288
  %cmp4 = icmp eq i16 %2, 0, !dbg !1219
  br i1 %cmp4, label %if.then5, label %return, !dbg !1220

if.then5:                                         ; preds = %if.then3
  store i8 0, i8* %call.i, align 1, !dbg !1221, !tbaa !337
  br label %return, !dbg !1222

return:                                           ; preds = %if.end, %if.then3, %if.then5, %land.lhs.true
  %retval.0 = phi i8 [ 1, %land.lhs.true ], [ 1, %if.then5 ], [ 1, %if.then3 ], [ 0, %if.end ]
  ret i8 %retval.0, !dbg !1223
}

; Function Attrs: nounwind
define zeroext i8 @_ZN6String12changeBufferEj(%class.String* nocapture %this, i16 %maxStrLen) local_unnamed_addr #0 align 2 !dbg !313 {
entry:
  tail call void @llvm.dbg.value(metadata %class.String* %this, i64 0, metadata !312, metadata !266), !dbg !1224
  tail call void @llvm.dbg.value(metadata i16 %maxStrLen, i64 0, metadata !315, metadata !266), !dbg !1225
  %buffer = getelementptr inbounds %class.String, %class.String* %this, i16 0, i32 0, !dbg !1226
  %0 = load i8*, i8** %buffer, align 1, !dbg !1226, !tbaa !277
  %add = add i16 %maxStrLen, 1, !dbg !1227
  %call = tail call noalias i8* @realloc(i8* %0, i16 %add), !dbg !1228
  tail call void @llvm.dbg.value(metadata i8* %call, i64 0, metadata !316, metadata !266), !dbg !1229
  %tobool = icmp eq i8* %call, null, !dbg !1230
  br i1 %tobool, label %cleanup, label %if.then, !dbg !1231

if.then:                                          ; preds = %entry
  store i8* %call, i8** %buffer, align 1, !dbg !1232, !tbaa !277
  %capacity = getelementptr inbounds %class.String, %class.String* %this, i16 0, i32 1, !dbg !1233
  store i16 %maxStrLen, i16* %capacity, align 1, !dbg !1234, !tbaa !285
  br label %cleanup, !dbg !1235

cleanup:                                          ; preds = %entry, %if.then
  %retval.0 = phi i8 [ 1, %if.then ], [ 0, %entry ]
  ret i8 %retval.0, !dbg !1236
}

; Function Attrs: nounwind
declare noalias i8* @realloc(i8* nocapture, i16) local_unnamed_addr #6

; Function Attrs: nounwind
declare i8* @strcpy(i8*, i8* nocapture readonly) local_unnamed_addr #6

define dereferenceable(6) %class.String* @_ZN6String4copyEPK19__FlashStringHelperj(%class.String* returned %this, %class.__FlashStringHelper* %pstr, i16 %length) local_unnamed_addr #3 align 2 !dbg !532 {
entry:
  tail call void @llvm.dbg.value(metadata %class.String* %this, i64 0, metadata !531, metadata !266), !dbg !1237
  tail call void @llvm.dbg.value(metadata %class.__FlashStringHelper* %pstr, i64 0, metadata !534, metadata !266), !dbg !1238
  tail call void @llvm.dbg.value(metadata i16 %length, i64 0, metadata !535, metadata !266), !dbg !1239
  tail call void @llvm.dbg.value(metadata %class.String* %this, i64 0, metadata !304, metadata !266) #10, !dbg !1240
  tail call void @llvm.dbg.value(metadata i16 %length, i64 0, metadata !307, metadata !266) #10, !dbg !1242
  %buffer.i = getelementptr inbounds %class.String, %class.String* %this, i16 0, i32 0, !dbg !1243
  %0 = load i8*, i8** %buffer.i, align 1, !dbg !1243, !tbaa !277
  %tobool.i = icmp eq i8* %0, null, !dbg !1243
  br i1 %tobool.i, label %if.end.i, label %land.lhs.true.i, !dbg !1244

land.lhs.true.i:                                  ; preds = %entry
  %capacity.i = getelementptr inbounds %class.String, %class.String* %this, i16 0, i32 1, !dbg !1245
  %1 = load i16, i16* %capacity.i, align 1, !dbg !1245, !tbaa !285
  %cmp.i = icmp ult i16 %1, %length, !dbg !1246
  br i1 %cmp.i, label %if.end.i, label %land.lhs.true.i.if.end_crit_edge, !dbg !1247

land.lhs.true.i.if.end_crit_edge:                 ; preds = %land.lhs.true.i
  %.pre = getelementptr inbounds %class.String, %class.String* %this, i16 0, i32 2, !dbg !1248
  br label %if.end, !dbg !1247

if.end.i:                                         ; preds = %land.lhs.true.i, %entry
  tail call void @llvm.dbg.value(metadata %class.String* %this, i64 0, metadata !312, metadata !266) #10, !dbg !1249
  tail call void @llvm.dbg.value(metadata i16 %length, i64 0, metadata !315, metadata !266) #10, !dbg !1251
  %add.i.i = add i16 %length, 1, !dbg !1252
  %call.i.i = tail call noalias i8* @realloc(i8* %0, i16 %add.i.i) #10, !dbg !1253
  tail call void @llvm.dbg.value(metadata i8* %call.i.i, i64 0, metadata !316, metadata !266) #10, !dbg !1254
  %tobool.i.i = icmp eq i8* %call.i.i, null, !dbg !1255
  br i1 %tobool.i.i, label %if.then, label %if.then3.i, !dbg !1256

if.then3.i:                                       ; preds = %if.end.i
  store i8* %call.i.i, i8** %buffer.i, align 1, !dbg !1257, !tbaa !277
  %capacity.i.i = getelementptr inbounds %class.String, %class.String* %this, i16 0, i32 1, !dbg !1258
  store i16 %length, i16* %capacity.i.i, align 1, !dbg !1259, !tbaa !285
  %len.i = getelementptr inbounds %class.String, %class.String* %this, i16 0, i32 2, !dbg !1260
  %2 = load i16, i16* %len.i, align 1, !dbg !1260, !tbaa !288
  %cmp4.i = icmp eq i16 %2, 0, !dbg !1261
  br i1 %cmp4.i, label %if.then5.i, label %if.end, !dbg !1262

if.then5.i:                                       ; preds = %if.then3.i
  store i8 0, i8* %call.i.i, align 1, !dbg !1263, !tbaa !337
  br label %if.end, !dbg !1264

if.then:                                          ; preds = %if.end.i
  tail call void @llvm.dbg.value(metadata %class.String* %this, i64 0, metadata !339, metadata !266) #10, !dbg !1265
  %3 = load i8*, i8** %buffer.i, align 1, !dbg !1267, !tbaa !277
  %tobool.i5 = icmp eq i8* %3, null, !dbg !1267
  br i1 %tobool.i5, label %_ZN6String10invalidateEv.exit, label %if.then.i, !dbg !1268

if.then.i:                                        ; preds = %if.then
  tail call void @free(i8* nonnull %3) #10, !dbg !1269
  br label %_ZN6String10invalidateEv.exit, !dbg !1269

_ZN6String10invalidateEv.exit:                    ; preds = %if.then, %if.then.i
  store i8* null, i8** %buffer.i, align 1, !dbg !1270, !tbaa !277
  %len.i6 = getelementptr inbounds %class.String, %class.String* %this, i16 0, i32 2, !dbg !1271
  store i16 0, i16* %len.i6, align 1, !dbg !1272, !tbaa !288
  %capacity.i7 = getelementptr inbounds %class.String, %class.String* %this, i16 0, i32 1, !dbg !1273
  store i16 0, i16* %capacity.i7, align 1, !dbg !1274, !tbaa !285
  br label %return, !dbg !1275

if.end:                                           ; preds = %land.lhs.true.i.if.end_crit_edge, %if.then5.i, %if.then3.i
  %len.pre-phi = phi i16* [ %.pre, %land.lhs.true.i.if.end_crit_edge ], [ %len.i, %if.then5.i ], [ %len.i, %if.then3.i ], !dbg !1248
  %4 = phi i8* [ %0, %land.lhs.true.i.if.end_crit_edge ], [ %call.i.i, %if.then5.i ], [ %call.i.i, %if.then3.i ], !dbg !1276
  store i16 %length, i16* %len.pre-phi, align 1, !dbg !1277, !tbaa !288
  %5 = bitcast %class.__FlashStringHelper* %pstr to i8*, !dbg !1278
  %call2 = tail call i8* @strcpy_P(i8* nonnull %4, i8* %5), !dbg !1279
  br label %return, !dbg !1280

return:                                           ; preds = %if.end, %_ZN6String10invalidateEv.exit
  ret %class.String* %this, !dbg !1281
}

declare i8* @strcpy_P(i8*, i8*) local_unnamed_addr #5

; Function Attrs: nounwind
define zeroext i8 @_ZN6String6concatERKS_(%class.String* nocapture %this, %class.String* nocapture readonly dereferenceable(6) %s) local_unnamed_addr #0 align 2 !dbg !1282 {
entry:
  tail call void @llvm.dbg.value(metadata %class.String* %this, i64 0, metadata !1284, metadata !266), !dbg !1286
  tail call void @llvm.dbg.value(metadata %class.String* %s, i64 0, metadata !1285, metadata !266), !dbg !1287
  %buffer = getelementptr inbounds %class.String, %class.String* %s, i16 0, i32 0, !dbg !1288
  %0 = load i8*, i8** %buffer, align 1, !dbg !1288, !tbaa !277
  %len = getelementptr inbounds %class.String, %class.String* %s, i16 0, i32 2, !dbg !1289
  %1 = load i16, i16* %len, align 1, !dbg !1289, !tbaa !288
  tail call void @llvm.dbg.value(metadata %class.String* %this, i64 0, metadata !1290, metadata !266) #10, !dbg !1296
  tail call void @llvm.dbg.value(metadata i8* %0, i64 0, metadata !1293, metadata !266) #10, !dbg !1298
  tail call void @llvm.dbg.value(metadata i16 %1, i64 0, metadata !1294, metadata !266) #10, !dbg !1299
  %len.i = getelementptr inbounds %class.String, %class.String* %this, i16 0, i32 2, !dbg !1300
  %2 = load i16, i16* %len.i, align 1, !dbg !1300, !tbaa !288
  %add.i = add i16 %2, %1, !dbg !1301
  tail call void @llvm.dbg.value(metadata i16 %add.i, i64 0, metadata !1295, metadata !266) #10, !dbg !1302
  %tobool.i = icmp eq i8* %0, null, !dbg !1303
  br i1 %tobool.i, label %_ZN6String6concatEPKcj.exit, label %if.end.i, !dbg !1305

if.end.i:                                         ; preds = %entry
  %cmp.i = icmp eq i16 %1, 0, !dbg !1306
  br i1 %cmp.i, label %_ZN6String6concatEPKcj.exit, label %if.end3.i, !dbg !1308

if.end3.i:                                        ; preds = %if.end.i
  tail call void @llvm.dbg.value(metadata %class.String* %this, i64 0, metadata !304, metadata !266) #10, !dbg !1309
  tail call void @llvm.dbg.value(metadata i16 %add.i, i64 0, metadata !307, metadata !266) #10, !dbg !1312
  %buffer.i.i = getelementptr inbounds %class.String, %class.String* %this, i16 0, i32 0, !dbg !1313
  %3 = load i8*, i8** %buffer.i.i, align 1, !dbg !1313, !tbaa !277
  %tobool.i.i = icmp eq i8* %3, null, !dbg !1313
  br i1 %tobool.i.i, label %if.end.i.i, label %land.lhs.true.i.i, !dbg !1314

land.lhs.true.i.i:                                ; preds = %if.end3.i
  %capacity.i.i = getelementptr inbounds %class.String, %class.String* %this, i16 0, i32 1, !dbg !1315
  %4 = load i16, i16* %capacity.i.i, align 1, !dbg !1315, !tbaa !285
  %cmp.i.i = icmp ult i16 %4, %add.i, !dbg !1316
  br i1 %cmp.i.i, label %if.end.i.i, label %if.end6.i, !dbg !1317

if.end.i.i:                                       ; preds = %land.lhs.true.i.i, %if.end3.i
  tail call void @llvm.dbg.value(metadata %class.String* %this, i64 0, metadata !312, metadata !266) #10, !dbg !1318
  tail call void @llvm.dbg.value(metadata i16 %add.i, i64 0, metadata !315, metadata !266) #10, !dbg !1320
  %add.i.i.i = add i16 %add.i, 1, !dbg !1321
  %call.i.i.i = tail call noalias i8* @realloc(i8* %3, i16 %add.i.i.i) #10, !dbg !1322
  tail call void @llvm.dbg.value(metadata i8* %call.i.i.i, i64 0, metadata !316, metadata !266) #10, !dbg !1323
  %tobool.i.i.i = icmp eq i8* %call.i.i.i, null, !dbg !1324
  br i1 %tobool.i.i.i, label %_ZN6String6concatEPKcj.exit, label %if.then3.i.i, !dbg !1325

if.then3.i.i:                                     ; preds = %if.end.i.i
  store i8* %call.i.i.i, i8** %buffer.i.i, align 1, !dbg !1326, !tbaa !277
  %capacity.i.i.i = getelementptr inbounds %class.String, %class.String* %this, i16 0, i32 1, !dbg !1327
  store i16 %add.i, i16* %capacity.i.i.i, align 1, !dbg !1328, !tbaa !285
  %5 = load i16, i16* %len.i, align 1, !dbg !1329, !tbaa !288
  %cmp4.i.i = icmp eq i16 %5, 0, !dbg !1330
  br i1 %cmp4.i.i, label %if.then5.i.i, label %if.end6.i, !dbg !1331

if.then5.i.i:                                     ; preds = %if.then3.i.i
  store i8 0, i8* %call.i.i.i, align 1, !dbg !1332, !tbaa !337
  br label %if.end6.i, !dbg !1333

if.end6.i:                                        ; preds = %if.then5.i.i, %if.then3.i.i, %land.lhs.true.i.i
  %6 = phi i16 [ %2, %land.lhs.true.i.i ], [ 0, %if.then5.i.i ], [ %5, %if.then3.i.i ], !dbg !1334
  %7 = phi i8* [ %3, %land.lhs.true.i.i ], [ %call.i.i.i, %if.then5.i.i ], [ %call.i.i.i, %if.then3.i.i ], !dbg !1335
  %add.ptr.i = getelementptr inbounds i8, i8* %7, i16 %6, !dbg !1336
  %call8.i = tail call i8* @strcpy(i8* %add.ptr.i, i8* nonnull %0) #10, !dbg !1337
  store i16 %add.i, i16* %len.i, align 1, !dbg !1338, !tbaa !288
  br label %_ZN6String6concatEPKcj.exit, !dbg !1339

_ZN6String6concatEPKcj.exit:                      ; preds = %entry, %if.end.i, %if.end.i.i, %if.end6.i
  %retval.0.i = phi i8 [ 1, %if.end6.i ], [ 0, %entry ], [ 1, %if.end.i ], [ 0, %if.end.i.i ]
  ret i8 %retval.0.i, !dbg !1340
}

; Function Attrs: nounwind
define zeroext i8 @_ZN6String6concatEPKcj(%class.String* nocapture %this, i8* readonly %cstr, i16 %length) local_unnamed_addr #0 align 2 !dbg !1291 {
entry:
  tail call void @llvm.dbg.value(metadata %class.String* %this, i64 0, metadata !1290, metadata !266), !dbg !1341
  tail call void @llvm.dbg.value(metadata i8* %cstr, i64 0, metadata !1293, metadata !266), !dbg !1342
  tail call void @llvm.dbg.value(metadata i16 %length, i64 0, metadata !1294, metadata !266), !dbg !1343
  %len = getelementptr inbounds %class.String, %class.String* %this, i16 0, i32 2, !dbg !1344
  %0 = load i16, i16* %len, align 1, !dbg !1344, !tbaa !288
  %add = add i16 %0, %length, !dbg !1345
  tail call void @llvm.dbg.value(metadata i16 %add, i64 0, metadata !1295, metadata !266), !dbg !1346
  %tobool = icmp eq i8* %cstr, null, !dbg !1347
  br i1 %tobool, label %cleanup, label %if.end, !dbg !1348

if.end:                                           ; preds = %entry
  %cmp = icmp eq i16 %length, 0, !dbg !1349
  br i1 %cmp, label %cleanup, label %if.end3, !dbg !1350

if.end3:                                          ; preds = %if.end
  tail call void @llvm.dbg.value(metadata %class.String* %this, i64 0, metadata !304, metadata !266) #10, !dbg !1351
  tail call void @llvm.dbg.value(metadata i16 %add, i64 0, metadata !307, metadata !266) #10, !dbg !1353
  %buffer.i = getelementptr inbounds %class.String, %class.String* %this, i16 0, i32 0, !dbg !1354
  %1 = load i8*, i8** %buffer.i, align 1, !dbg !1354, !tbaa !277
  %tobool.i = icmp eq i8* %1, null, !dbg !1354
  br i1 %tobool.i, label %if.end.i, label %land.lhs.true.i, !dbg !1355

land.lhs.true.i:                                  ; preds = %if.end3
  %capacity.i = getelementptr inbounds %class.String, %class.String* %this, i16 0, i32 1, !dbg !1356
  %2 = load i16, i16* %capacity.i, align 1, !dbg !1356, !tbaa !285
  %cmp.i = icmp ult i16 %2, %add, !dbg !1357
  br i1 %cmp.i, label %if.end.i, label %if.end6, !dbg !1358

if.end.i:                                         ; preds = %land.lhs.true.i, %if.end3
  tail call void @llvm.dbg.value(metadata %class.String* %this, i64 0, metadata !312, metadata !266) #10, !dbg !1359
  tail call void @llvm.dbg.value(metadata i16 %add, i64 0, metadata !315, metadata !266) #10, !dbg !1361
  %add.i.i = add i16 %add, 1, !dbg !1362
  %call.i.i = tail call noalias i8* @realloc(i8* %1, i16 %add.i.i) #10, !dbg !1363
  tail call void @llvm.dbg.value(metadata i8* %call.i.i, i64 0, metadata !316, metadata !266) #10, !dbg !1364
  %tobool.i.i = icmp eq i8* %call.i.i, null, !dbg !1365
  br i1 %tobool.i.i, label %cleanup, label %if.then3.i, !dbg !1366

if.then3.i:                                       ; preds = %if.end.i
  store i8* %call.i.i, i8** %buffer.i, align 1, !dbg !1367, !tbaa !277
  %capacity.i.i = getelementptr inbounds %class.String, %class.String* %this, i16 0, i32 1, !dbg !1368
  store i16 %add, i16* %capacity.i.i, align 1, !dbg !1369, !tbaa !285
  %3 = load i16, i16* %len, align 1, !dbg !1370, !tbaa !288
  %cmp4.i = icmp eq i16 %3, 0, !dbg !1371
  br i1 %cmp4.i, label %if.then5.i, label %if.end6, !dbg !1372

if.then5.i:                                       ; preds = %if.then3.i
  store i8 0, i8* %call.i.i, align 1, !dbg !1373, !tbaa !337
  br label %if.end6, !dbg !1374

if.end6:                                          ; preds = %land.lhs.true.i, %if.then5.i, %if.then3.i
  %4 = phi i16 [ %0, %land.lhs.true.i ], [ 0, %if.then5.i ], [ %3, %if.then3.i ], !dbg !1375
  %5 = phi i8* [ %1, %land.lhs.true.i ], [ %call.i.i, %if.then5.i ], [ %call.i.i, %if.then3.i ], !dbg !1376
  %add.ptr = getelementptr inbounds i8, i8* %5, i16 %4, !dbg !1377
  %call8 = tail call i8* @strcpy(i8* %add.ptr, i8* nonnull %cstr), !dbg !1378
  store i16 %add, i16* %len, align 1, !dbg !1379, !tbaa !288
  br label %cleanup, !dbg !1380

cleanup:                                          ; preds = %if.end.i, %if.end, %entry, %if.end6
  %retval.0 = phi i8 [ 1, %if.end6 ], [ 0, %entry ], [ 1, %if.end ], [ 0, %if.end.i ]
  ret i8 %retval.0, !dbg !1381
}

; Function Attrs: nounwind
define zeroext i8 @_ZN6String6concatEPKc(%class.String* nocapture %this, i8* readonly %cstr) local_unnamed_addr #0 align 2 !dbg !1382 {
entry:
  tail call void @llvm.dbg.value(metadata %class.String* %this, i64 0, metadata !1384, metadata !266), !dbg !1386
  tail call void @llvm.dbg.value(metadata i8* %cstr, i64 0, metadata !1385, metadata !266), !dbg !1387
  %tobool = icmp eq i8* %cstr, null, !dbg !1388
  br i1 %tobool, label %return, label %if.end.i, !dbg !1390

if.end.i:                                         ; preds = %entry
  %call = tail call i16 @strlen(i8* nonnull %cstr) #9, !dbg !1391
  tail call void @llvm.dbg.value(metadata %class.String* %this, i64 0, metadata !1290, metadata !266) #10, !dbg !1392
  tail call void @llvm.dbg.value(metadata i8* %cstr, i64 0, metadata !1293, metadata !266) #10, !dbg !1395
  tail call void @llvm.dbg.value(metadata i16 %call, i64 0, metadata !1294, metadata !266) #10, !dbg !1396
  %len.i = getelementptr inbounds %class.String, %class.String* %this, i16 0, i32 2, !dbg !1397
  %0 = load i16, i16* %len.i, align 1, !dbg !1397, !tbaa !288
  %add.i = add i16 %0, %call, !dbg !1398
  tail call void @llvm.dbg.value(metadata i16 %add.i, i64 0, metadata !1295, metadata !266) #10, !dbg !1399
  %cmp.i = icmp eq i16 %call, 0, !dbg !1400
  br i1 %cmp.i, label %return, label %if.end3.i, !dbg !1401

if.end3.i:                                        ; preds = %if.end.i
  tail call void @llvm.dbg.value(metadata %class.String* %this, i64 0, metadata !304, metadata !266) #10, !dbg !1402
  tail call void @llvm.dbg.value(metadata i16 %add.i, i64 0, metadata !307, metadata !266) #10, !dbg !1404
  %buffer.i.i = getelementptr inbounds %class.String, %class.String* %this, i16 0, i32 0, !dbg !1405
  %1 = load i8*, i8** %buffer.i.i, align 1, !dbg !1405, !tbaa !277
  %tobool.i.i = icmp eq i8* %1, null, !dbg !1405
  br i1 %tobool.i.i, label %if.end.i.i, label %land.lhs.true.i.i, !dbg !1406

land.lhs.true.i.i:                                ; preds = %if.end3.i
  %capacity.i.i = getelementptr inbounds %class.String, %class.String* %this, i16 0, i32 1, !dbg !1407
  %2 = load i16, i16* %capacity.i.i, align 1, !dbg !1407, !tbaa !285
  %cmp.i.i = icmp ult i16 %2, %add.i, !dbg !1408
  br i1 %cmp.i.i, label %if.end.i.i, label %if.end6.i, !dbg !1409

if.end.i.i:                                       ; preds = %land.lhs.true.i.i, %if.end3.i
  tail call void @llvm.dbg.value(metadata %class.String* %this, i64 0, metadata !312, metadata !266) #10, !dbg !1410
  tail call void @llvm.dbg.value(metadata i16 %add.i, i64 0, metadata !315, metadata !266) #10, !dbg !1412
  %add.i.i.i = add i16 %add.i, 1, !dbg !1413
  %call.i.i.i = tail call noalias i8* @realloc(i8* %1, i16 %add.i.i.i) #10, !dbg !1414
  tail call void @llvm.dbg.value(metadata i8* %call.i.i.i, i64 0, metadata !316, metadata !266) #10, !dbg !1415
  %tobool.i.i.i = icmp eq i8* %call.i.i.i, null, !dbg !1416
  br i1 %tobool.i.i.i, label %return, label %if.then3.i.i, !dbg !1417

if.then3.i.i:                                     ; preds = %if.end.i.i
  store i8* %call.i.i.i, i8** %buffer.i.i, align 1, !dbg !1418, !tbaa !277
  %capacity.i.i.i = getelementptr inbounds %class.String, %class.String* %this, i16 0, i32 1, !dbg !1419
  store i16 %add.i, i16* %capacity.i.i.i, align 1, !dbg !1420, !tbaa !285
  %3 = load i16, i16* %len.i, align 1, !dbg !1421, !tbaa !288
  %cmp4.i.i = icmp eq i16 %3, 0, !dbg !1422
  br i1 %cmp4.i.i, label %if.then5.i.i, label %if.end6.i, !dbg !1423

if.then5.i.i:                                     ; preds = %if.then3.i.i
  store i8 0, i8* %call.i.i.i, align 1, !dbg !1424, !tbaa !337
  br label %if.end6.i, !dbg !1425

if.end6.i:                                        ; preds = %if.then5.i.i, %if.then3.i.i, %land.lhs.true.i.i
  %4 = phi i16 [ %0, %land.lhs.true.i.i ], [ 0, %if.then5.i.i ], [ %3, %if.then3.i.i ], !dbg !1426
  %5 = phi i8* [ %1, %land.lhs.true.i.i ], [ %call.i.i.i, %if.then5.i.i ], [ %call.i.i.i, %if.then3.i.i ], !dbg !1427
  %add.ptr.i = getelementptr inbounds i8, i8* %5, i16 %4, !dbg !1428
  %call8.i = tail call i8* @strcpy(i8* %add.ptr.i, i8* nonnull %cstr) #10, !dbg !1429
  store i16 %add.i, i16* %len.i, align 1, !dbg !1430, !tbaa !288
  br label %return, !dbg !1431

return:                                           ; preds = %if.end6.i, %if.end.i.i, %if.end.i, %entry
  %retval.0 = phi i8 [ 0, %entry ], [ 1, %if.end6.i ], [ 1, %if.end.i ], [ 0, %if.end.i.i ]
  ret i8 %retval.0, !dbg !1432
}

; Function Attrs: nounwind
define zeroext i8 @_ZN6String6concatEc(%class.String* nocapture %this, i8 signext %c) local_unnamed_addr #0 align 2 !dbg !1433 {
entry:
  %buf = alloca [2 x i8], align 1
  tail call void @llvm.dbg.value(metadata %class.String* %this, i64 0, metadata !1435, metadata !266), !dbg !1438
  tail call void @llvm.dbg.value(metadata i8 %c, i64 0, metadata !1436, metadata !266), !dbg !1439
  %0 = getelementptr inbounds [2 x i8], [2 x i8]* %buf, i16 0, i16 0, !dbg !1440
  call void @llvm.lifetime.start(i64 2, i8* nonnull %0) #10, !dbg !1440
  tail call void @llvm.dbg.declare(metadata [2 x i8]* %buf, metadata !1437, metadata !266), !dbg !1441
  store i8 %c, i8* %0, align 1, !dbg !1442, !tbaa !337
  %arrayidx2 = getelementptr inbounds [2 x i8], [2 x i8]* %buf, i16 0, i16 1, !dbg !1443
  store i8 0, i8* %arrayidx2, align 1, !dbg !1444, !tbaa !337
  tail call void @llvm.dbg.value(metadata %class.String* %this, i64 0, metadata !1290, metadata !266) #10, !dbg !1445
  tail call void @llvm.dbg.value(metadata i8* %0, i64 0, metadata !1293, metadata !266) #10, !dbg !1447
  tail call void @llvm.dbg.value(metadata i16 1, i64 0, metadata !1294, metadata !266) #10, !dbg !1448
  %len.i = getelementptr inbounds %class.String, %class.String* %this, i16 0, i32 2, !dbg !1449
  %1 = load i16, i16* %len.i, align 1, !dbg !1449, !tbaa !288
  %add.i = add i16 %1, 1, !dbg !1450
  tail call void @llvm.dbg.value(metadata i16 %add.i, i64 0, metadata !1295, metadata !266) #10, !dbg !1451
  tail call void @llvm.dbg.value(metadata %class.String* %this, i64 0, metadata !304, metadata !266) #10, !dbg !1452
  tail call void @llvm.dbg.value(metadata i16 %add.i, i64 0, metadata !307, metadata !266) #10, !dbg !1454
  %buffer.i.i = getelementptr inbounds %class.String, %class.String* %this, i16 0, i32 0, !dbg !1455
  %2 = load i8*, i8** %buffer.i.i, align 1, !dbg !1455, !tbaa !277
  %tobool.i.i = icmp eq i8* %2, null, !dbg !1455
  br i1 %tobool.i.i, label %if.end.i.i, label %land.lhs.true.i.i, !dbg !1456

land.lhs.true.i.i:                                ; preds = %entry
  %capacity.i.i = getelementptr inbounds %class.String, %class.String* %this, i16 0, i32 1, !dbg !1457
  %3 = load i16, i16* %capacity.i.i, align 1, !dbg !1457, !tbaa !285
  %cmp.i.i = icmp ult i16 %3, %add.i, !dbg !1458
  br i1 %cmp.i.i, label %if.end.i.i, label %if.end6.i, !dbg !1459

if.end.i.i:                                       ; preds = %land.lhs.true.i.i, %entry
  tail call void @llvm.dbg.value(metadata %class.String* %this, i64 0, metadata !312, metadata !266) #10, !dbg !1460
  tail call void @llvm.dbg.value(metadata i16 %add.i, i64 0, metadata !315, metadata !266) #10, !dbg !1462
  %add.i.i.i = add i16 %1, 2, !dbg !1463
  %call.i.i.i = tail call noalias i8* @realloc(i8* %2, i16 %add.i.i.i) #10, !dbg !1464
  tail call void @llvm.dbg.value(metadata i8* %call.i.i.i, i64 0, metadata !316, metadata !266) #10, !dbg !1465
  %tobool.i.i.i = icmp eq i8* %call.i.i.i, null, !dbg !1466
  br i1 %tobool.i.i.i, label %_ZN6String6concatEPKcj.exit, label %if.then3.i.i, !dbg !1467

if.then3.i.i:                                     ; preds = %if.end.i.i
  store i8* %call.i.i.i, i8** %buffer.i.i, align 1, !dbg !1468, !tbaa !277
  %capacity.i.i.i = getelementptr inbounds %class.String, %class.String* %this, i16 0, i32 1, !dbg !1469
  store i16 %add.i, i16* %capacity.i.i.i, align 1, !dbg !1470, !tbaa !285
  %4 = load i16, i16* %len.i, align 1, !dbg !1471, !tbaa !288
  %cmp4.i.i = icmp eq i16 %4, 0, !dbg !1472
  br i1 %cmp4.i.i, label %if.then5.i.i, label %if.end6.i, !dbg !1473

if.then5.i.i:                                     ; preds = %if.then3.i.i
  store i8 0, i8* %call.i.i.i, align 1, !dbg !1474, !tbaa !337
  br label %if.end6.i, !dbg !1475

if.end6.i:                                        ; preds = %if.then5.i.i, %if.then3.i.i, %land.lhs.true.i.i
  %5 = phi i16 [ %1, %land.lhs.true.i.i ], [ 0, %if.then5.i.i ], [ %4, %if.then3.i.i ], !dbg !1476
  %6 = phi i8* [ %2, %land.lhs.true.i.i ], [ %call.i.i.i, %if.then5.i.i ], [ %call.i.i.i, %if.then3.i.i ], !dbg !1477
  %add.ptr.i = getelementptr inbounds i8, i8* %6, i16 %5, !dbg !1478
  %call8.i = call i8* @strcpy(i8* %add.ptr.i, i8* nonnull %0) #10, !dbg !1479
  store i16 %add.i, i16* %len.i, align 1, !dbg !1480, !tbaa !288
  br label %_ZN6String6concatEPKcj.exit, !dbg !1481

_ZN6String6concatEPKcj.exit:                      ; preds = %if.end.i.i, %if.end6.i
  %retval.0.i = phi i8 [ 1, %if.end6.i ], [ 0, %if.end.i.i ]
  call void @llvm.lifetime.end(i64 2, i8* nonnull %0) #10, !dbg !1482
  ret i8 %retval.0.i, !dbg !1483
}

define zeroext i8 @_ZN6String6concatEh(%class.String* nocapture %this, i8 zeroext %num) local_unnamed_addr #3 align 2 !dbg !1484 {
entry:
  %buf = alloca [4 x i8], align 1
  tail call void @llvm.dbg.value(metadata %class.String* %this, i64 0, metadata !1486, metadata !266), !dbg !1492
  tail call void @llvm.dbg.value(metadata i8 %num, i64 0, metadata !1487, metadata !266), !dbg !1493
  %0 = getelementptr inbounds [4 x i8], [4 x i8]* %buf, i16 0, i16 0, !dbg !1494
  call void @llvm.lifetime.start(i64 4, i8* nonnull %0) #10, !dbg !1494
  tail call void @llvm.dbg.declare(metadata [4 x i8]* %buf, metadata !1488, metadata !266), !dbg !1495
  %conv = zext i8 %num to i16, !dbg !1496
  tail call void @llvm.dbg.value(metadata i16 %conv, i64 0, metadata !833, metadata !266), !dbg !1497
  tail call void @llvm.dbg.value(metadata i8* %0, i64 0, metadata !838, metadata !266), !dbg !1499
  tail call void @llvm.dbg.value(metadata i16 10, i64 0, metadata !839, metadata !266), !dbg !1500
  %call.i = call i8* @__itoa(i16 %conv, i8* nonnull %0, i16 10), !dbg !1501
  %call4 = call i16 @strlen(i8* nonnull %0) #9, !dbg !1502
  call void @llvm.dbg.value(metadata %class.String* %this, i64 0, metadata !1290, metadata !266) #10, !dbg !1503
  call void @llvm.dbg.value(metadata i8* %0, i64 0, metadata !1293, metadata !266) #10, !dbg !1506
  call void @llvm.dbg.value(metadata i16 %call4, i64 0, metadata !1294, metadata !266) #10, !dbg !1507
  %len.i = getelementptr inbounds %class.String, %class.String* %this, i16 0, i32 2, !dbg !1508
  %1 = load i16, i16* %len.i, align 1, !dbg !1508, !tbaa !288
  %add.i = add i16 %1, %call4, !dbg !1509
  call void @llvm.dbg.value(metadata i16 %add.i, i64 0, metadata !1295, metadata !266) #10, !dbg !1510
  %cmp.i = icmp eq i16 %call4, 0, !dbg !1511
  br i1 %cmp.i, label %_ZN6String6concatEPKcj.exit, label %if.end3.i, !dbg !1512

if.end3.i:                                        ; preds = %entry
  call void @llvm.dbg.value(metadata %class.String* %this, i64 0, metadata !304, metadata !266) #10, !dbg !1513
  call void @llvm.dbg.value(metadata i16 %add.i, i64 0, metadata !307, metadata !266) #10, !dbg !1515
  %buffer.i.i = getelementptr inbounds %class.String, %class.String* %this, i16 0, i32 0, !dbg !1516
  %2 = load i8*, i8** %buffer.i.i, align 1, !dbg !1516, !tbaa !277
  %tobool.i.i = icmp eq i8* %2, null, !dbg !1516
  br i1 %tobool.i.i, label %if.end.i.i, label %land.lhs.true.i.i, !dbg !1517

land.lhs.true.i.i:                                ; preds = %if.end3.i
  %capacity.i.i = getelementptr inbounds %class.String, %class.String* %this, i16 0, i32 1, !dbg !1518
  %3 = load i16, i16* %capacity.i.i, align 1, !dbg !1518, !tbaa !285
  %cmp.i.i = icmp ult i16 %3, %add.i, !dbg !1519
  br i1 %cmp.i.i, label %if.end.i.i, label %if.end6.i, !dbg !1520

if.end.i.i:                                       ; preds = %land.lhs.true.i.i, %if.end3.i
  call void @llvm.dbg.value(metadata %class.String* %this, i64 0, metadata !312, metadata !266) #10, !dbg !1521
  call void @llvm.dbg.value(metadata i16 %add.i, i64 0, metadata !315, metadata !266) #10, !dbg !1523
  %add.i.i.i = add i16 %add.i, 1, !dbg !1524
  %call.i.i.i = call noalias i8* @realloc(i8* %2, i16 %add.i.i.i) #10, !dbg !1525
  call void @llvm.dbg.value(metadata i8* %call.i.i.i, i64 0, metadata !316, metadata !266) #10, !dbg !1526
  %tobool.i.i.i = icmp eq i8* %call.i.i.i, null, !dbg !1527
  br i1 %tobool.i.i.i, label %_ZN6String6concatEPKcj.exit, label %if.then3.i.i, !dbg !1528

if.then3.i.i:                                     ; preds = %if.end.i.i
  store i8* %call.i.i.i, i8** %buffer.i.i, align 1, !dbg !1529, !tbaa !277
  %capacity.i.i.i = getelementptr inbounds %class.String, %class.String* %this, i16 0, i32 1, !dbg !1530
  store i16 %add.i, i16* %capacity.i.i.i, align 1, !dbg !1531, !tbaa !285
  %4 = load i16, i16* %len.i, align 1, !dbg !1532, !tbaa !288
  %cmp4.i.i = icmp eq i16 %4, 0, !dbg !1533
  br i1 %cmp4.i.i, label %if.then5.i.i, label %if.end6.i, !dbg !1534

if.then5.i.i:                                     ; preds = %if.then3.i.i
  store i8 0, i8* %call.i.i.i, align 1, !dbg !1535, !tbaa !337
  br label %if.end6.i, !dbg !1536

if.end6.i:                                        ; preds = %if.then5.i.i, %if.then3.i.i, %land.lhs.true.i.i
  %5 = phi i16 [ %1, %land.lhs.true.i.i ], [ 0, %if.then5.i.i ], [ %4, %if.then3.i.i ], !dbg !1537
  %6 = phi i8* [ %2, %land.lhs.true.i.i ], [ %call.i.i.i, %if.then5.i.i ], [ %call.i.i.i, %if.then3.i.i ], !dbg !1538
  %add.ptr.i = getelementptr inbounds i8, i8* %6, i16 %5, !dbg !1539
  %call8.i = call i8* @strcpy(i8* %add.ptr.i, i8* nonnull %0) #10, !dbg !1540
  store i16 %add.i, i16* %len.i, align 1, !dbg !1541, !tbaa !288
  br label %_ZN6String6concatEPKcj.exit, !dbg !1542

_ZN6String6concatEPKcj.exit:                      ; preds = %entry, %if.end.i.i, %if.end6.i
  %retval.0.i = phi i8 [ 1, %if.end6.i ], [ 1, %entry ], [ 0, %if.end.i.i ]
  call void @llvm.lifetime.end(i64 4, i8* nonnull %0) #10, !dbg !1543
  ret i8 %retval.0.i, !dbg !1544
}

define zeroext i8 @_ZN6String6concatEi(%class.String* nocapture %this, i16 %num) local_unnamed_addr #3 align 2 !dbg !1545 {
entry:
  %buf = alloca [8 x i8], align 1
  tail call void @llvm.dbg.value(metadata %class.String* %this, i64 0, metadata !1547, metadata !266), !dbg !1553
  tail call void @llvm.dbg.value(metadata i16 %num, i64 0, metadata !1548, metadata !266), !dbg !1554
  %0 = getelementptr inbounds [8 x i8], [8 x i8]* %buf, i16 0, i16 0, !dbg !1555
  call void @llvm.lifetime.start(i64 8, i8* nonnull %0) #10, !dbg !1555
  tail call void @llvm.dbg.declare(metadata [8 x i8]* %buf, metadata !1549, metadata !266), !dbg !1556
  tail call void @llvm.dbg.value(metadata i16 %num, i64 0, metadata !833, metadata !266), !dbg !1557
  tail call void @llvm.dbg.value(metadata i8* %0, i64 0, metadata !838, metadata !266), !dbg !1559
  tail call void @llvm.dbg.value(metadata i16 10, i64 0, metadata !839, metadata !266), !dbg !1560
  %call.i = call i8* @__itoa(i16 %num, i8* nonnull %0, i16 10), !dbg !1561
  %call4 = call i16 @strlen(i8* nonnull %0) #9, !dbg !1562
  call void @llvm.dbg.value(metadata %class.String* %this, i64 0, metadata !1290, metadata !266) #10, !dbg !1563
  call void @llvm.dbg.value(metadata i8* %0, i64 0, metadata !1293, metadata !266) #10, !dbg !1566
  call void @llvm.dbg.value(metadata i16 %call4, i64 0, metadata !1294, metadata !266) #10, !dbg !1567
  %len.i = getelementptr inbounds %class.String, %class.String* %this, i16 0, i32 2, !dbg !1568
  %1 = load i16, i16* %len.i, align 1, !dbg !1568, !tbaa !288
  %add.i = add i16 %1, %call4, !dbg !1569
  call void @llvm.dbg.value(metadata i16 %add.i, i64 0, metadata !1295, metadata !266) #10, !dbg !1570
  %cmp.i = icmp eq i16 %call4, 0, !dbg !1571
  br i1 %cmp.i, label %_ZN6String6concatEPKcj.exit, label %if.end3.i, !dbg !1572

if.end3.i:                                        ; preds = %entry
  call void @llvm.dbg.value(metadata %class.String* %this, i64 0, metadata !304, metadata !266) #10, !dbg !1573
  call void @llvm.dbg.value(metadata i16 %add.i, i64 0, metadata !307, metadata !266) #10, !dbg !1575
  %buffer.i.i = getelementptr inbounds %class.String, %class.String* %this, i16 0, i32 0, !dbg !1576
  %2 = load i8*, i8** %buffer.i.i, align 1, !dbg !1576, !tbaa !277
  %tobool.i.i = icmp eq i8* %2, null, !dbg !1576
  br i1 %tobool.i.i, label %if.end.i.i, label %land.lhs.true.i.i, !dbg !1577

land.lhs.true.i.i:                                ; preds = %if.end3.i
  %capacity.i.i = getelementptr inbounds %class.String, %class.String* %this, i16 0, i32 1, !dbg !1578
  %3 = load i16, i16* %capacity.i.i, align 1, !dbg !1578, !tbaa !285
  %cmp.i.i = icmp ult i16 %3, %add.i, !dbg !1579
  br i1 %cmp.i.i, label %if.end.i.i, label %if.end6.i, !dbg !1580

if.end.i.i:                                       ; preds = %land.lhs.true.i.i, %if.end3.i
  call void @llvm.dbg.value(metadata %class.String* %this, i64 0, metadata !312, metadata !266) #10, !dbg !1581
  call void @llvm.dbg.value(metadata i16 %add.i, i64 0, metadata !315, metadata !266) #10, !dbg !1583
  %add.i.i.i = add i16 %add.i, 1, !dbg !1584
  %call.i.i.i = call noalias i8* @realloc(i8* %2, i16 %add.i.i.i) #10, !dbg !1585
  call void @llvm.dbg.value(metadata i8* %call.i.i.i, i64 0, metadata !316, metadata !266) #10, !dbg !1586
  %tobool.i.i.i = icmp eq i8* %call.i.i.i, null, !dbg !1587
  br i1 %tobool.i.i.i, label %_ZN6String6concatEPKcj.exit, label %if.then3.i.i, !dbg !1588

if.then3.i.i:                                     ; preds = %if.end.i.i
  store i8* %call.i.i.i, i8** %buffer.i.i, align 1, !dbg !1589, !tbaa !277
  %capacity.i.i.i = getelementptr inbounds %class.String, %class.String* %this, i16 0, i32 1, !dbg !1590
  store i16 %add.i, i16* %capacity.i.i.i, align 1, !dbg !1591, !tbaa !285
  %4 = load i16, i16* %len.i, align 1, !dbg !1592, !tbaa !288
  %cmp4.i.i = icmp eq i16 %4, 0, !dbg !1593
  br i1 %cmp4.i.i, label %if.then5.i.i, label %if.end6.i, !dbg !1594

if.then5.i.i:                                     ; preds = %if.then3.i.i
  store i8 0, i8* %call.i.i.i, align 1, !dbg !1595, !tbaa !337
  br label %if.end6.i, !dbg !1596

if.end6.i:                                        ; preds = %if.then5.i.i, %if.then3.i.i, %land.lhs.true.i.i
  %5 = phi i16 [ %1, %land.lhs.true.i.i ], [ 0, %if.then5.i.i ], [ %4, %if.then3.i.i ], !dbg !1597
  %6 = phi i8* [ %2, %land.lhs.true.i.i ], [ %call.i.i.i, %if.then5.i.i ], [ %call.i.i.i, %if.then3.i.i ], !dbg !1598
  %add.ptr.i = getelementptr inbounds i8, i8* %6, i16 %5, !dbg !1599
  %call8.i = call i8* @strcpy(i8* %add.ptr.i, i8* nonnull %0) #10, !dbg !1600
  store i16 %add.i, i16* %len.i, align 1, !dbg !1601, !tbaa !288
  br label %_ZN6String6concatEPKcj.exit, !dbg !1602

_ZN6String6concatEPKcj.exit:                      ; preds = %entry, %if.end.i.i, %if.end6.i
  %retval.0.i = phi i8 [ 1, %if.end6.i ], [ 1, %entry ], [ 0, %if.end.i.i ]
  call void @llvm.lifetime.end(i64 8, i8* nonnull %0) #10, !dbg !1603
  ret i8 %retval.0.i, !dbg !1604
}

define zeroext i8 @_ZN6String6concatEj(%class.String* nocapture %this, i16 %num) local_unnamed_addr #3 align 2 !dbg !1605 {
entry:
  %buf = alloca [7 x i8], align 1
  tail call void @llvm.dbg.value(metadata %class.String* %this, i64 0, metadata !1607, metadata !266), !dbg !1613
  tail call void @llvm.dbg.value(metadata i16 %num, i64 0, metadata !1608, metadata !266), !dbg !1614
  %0 = getelementptr inbounds [7 x i8], [7 x i8]* %buf, i16 0, i16 0, !dbg !1615
  call void @llvm.lifetime.start(i64 7, i8* nonnull %0) #10, !dbg !1615
  tail call void @llvm.dbg.declare(metadata [7 x i8]* %buf, metadata !1609, metadata !266), !dbg !1616
  tail call void @llvm.dbg.value(metadata i16 %num, i64 0, metadata !749, metadata !266), !dbg !1617
  tail call void @llvm.dbg.value(metadata i8* %0, i64 0, metadata !755, metadata !266), !dbg !1619
  tail call void @llvm.dbg.value(metadata i16 10, i64 0, metadata !756, metadata !266), !dbg !1620
  %call.i = call i8* @__utoa(i16 %num, i8* nonnull %0, i16 10), !dbg !1621
  %call4 = call i16 @strlen(i8* nonnull %0) #9, !dbg !1622
  call void @llvm.dbg.value(metadata %class.String* %this, i64 0, metadata !1290, metadata !266) #10, !dbg !1623
  call void @llvm.dbg.value(metadata i8* %0, i64 0, metadata !1293, metadata !266) #10, !dbg !1626
  call void @llvm.dbg.value(metadata i16 %call4, i64 0, metadata !1294, metadata !266) #10, !dbg !1627
  %len.i = getelementptr inbounds %class.String, %class.String* %this, i16 0, i32 2, !dbg !1628
  %1 = load i16, i16* %len.i, align 1, !dbg !1628, !tbaa !288
  %add.i = add i16 %1, %call4, !dbg !1629
  call void @llvm.dbg.value(metadata i16 %add.i, i64 0, metadata !1295, metadata !266) #10, !dbg !1630
  %cmp.i = icmp eq i16 %call4, 0, !dbg !1631
  br i1 %cmp.i, label %_ZN6String6concatEPKcj.exit, label %if.end3.i, !dbg !1632

if.end3.i:                                        ; preds = %entry
  call void @llvm.dbg.value(metadata %class.String* %this, i64 0, metadata !304, metadata !266) #10, !dbg !1633
  call void @llvm.dbg.value(metadata i16 %add.i, i64 0, metadata !307, metadata !266) #10, !dbg !1635
  %buffer.i.i = getelementptr inbounds %class.String, %class.String* %this, i16 0, i32 0, !dbg !1636
  %2 = load i8*, i8** %buffer.i.i, align 1, !dbg !1636, !tbaa !277
  %tobool.i.i = icmp eq i8* %2, null, !dbg !1636
  br i1 %tobool.i.i, label %if.end.i.i, label %land.lhs.true.i.i, !dbg !1637

land.lhs.true.i.i:                                ; preds = %if.end3.i
  %capacity.i.i = getelementptr inbounds %class.String, %class.String* %this, i16 0, i32 1, !dbg !1638
  %3 = load i16, i16* %capacity.i.i, align 1, !dbg !1638, !tbaa !285
  %cmp.i.i = icmp ult i16 %3, %add.i, !dbg !1639
  br i1 %cmp.i.i, label %if.end.i.i, label %if.end6.i, !dbg !1640

if.end.i.i:                                       ; preds = %land.lhs.true.i.i, %if.end3.i
  call void @llvm.dbg.value(metadata %class.String* %this, i64 0, metadata !312, metadata !266) #10, !dbg !1641
  call void @llvm.dbg.value(metadata i16 %add.i, i64 0, metadata !315, metadata !266) #10, !dbg !1643
  %add.i.i.i = add i16 %add.i, 1, !dbg !1644
  %call.i.i.i = call noalias i8* @realloc(i8* %2, i16 %add.i.i.i) #10, !dbg !1645
  call void @llvm.dbg.value(metadata i8* %call.i.i.i, i64 0, metadata !316, metadata !266) #10, !dbg !1646
  %tobool.i.i.i = icmp eq i8* %call.i.i.i, null, !dbg !1647
  br i1 %tobool.i.i.i, label %_ZN6String6concatEPKcj.exit, label %if.then3.i.i, !dbg !1648

if.then3.i.i:                                     ; preds = %if.end.i.i
  store i8* %call.i.i.i, i8** %buffer.i.i, align 1, !dbg !1649, !tbaa !277
  %capacity.i.i.i = getelementptr inbounds %class.String, %class.String* %this, i16 0, i32 1, !dbg !1650
  store i16 %add.i, i16* %capacity.i.i.i, align 1, !dbg !1651, !tbaa !285
  %4 = load i16, i16* %len.i, align 1, !dbg !1652, !tbaa !288
  %cmp4.i.i = icmp eq i16 %4, 0, !dbg !1653
  br i1 %cmp4.i.i, label %if.then5.i.i, label %if.end6.i, !dbg !1654

if.then5.i.i:                                     ; preds = %if.then3.i.i
  store i8 0, i8* %call.i.i.i, align 1, !dbg !1655, !tbaa !337
  br label %if.end6.i, !dbg !1656

if.end6.i:                                        ; preds = %if.then5.i.i, %if.then3.i.i, %land.lhs.true.i.i
  %5 = phi i16 [ %1, %land.lhs.true.i.i ], [ 0, %if.then5.i.i ], [ %4, %if.then3.i.i ], !dbg !1657
  %6 = phi i8* [ %2, %land.lhs.true.i.i ], [ %call.i.i.i, %if.then5.i.i ], [ %call.i.i.i, %if.then3.i.i ], !dbg !1658
  %add.ptr.i = getelementptr inbounds i8, i8* %6, i16 %5, !dbg !1659
  %call8.i = call i8* @strcpy(i8* %add.ptr.i, i8* nonnull %0) #10, !dbg !1660
  store i16 %add.i, i16* %len.i, align 1, !dbg !1661, !tbaa !288
  br label %_ZN6String6concatEPKcj.exit, !dbg !1662

_ZN6String6concatEPKcj.exit:                      ; preds = %entry, %if.end.i.i, %if.end6.i
  %retval.0.i = phi i8 [ 1, %if.end6.i ], [ 1, %entry ], [ 0, %if.end.i.i ]
  call void @llvm.lifetime.end(i64 7, i8* nonnull %0) #10, !dbg !1663
  ret i8 %retval.0.i, !dbg !1664
}

define zeroext i8 @_ZN6String6concatEl(%class.String* nocapture %this, i32 %num) local_unnamed_addr #3 align 2 !dbg !1665 {
entry:
  %buf = alloca [14 x i8], align 1
  tail call void @llvm.dbg.value(metadata %class.String* %this, i64 0, metadata !1667, metadata !266), !dbg !1673
  tail call void @llvm.dbg.value(metadata i32 %num, i64 0, metadata !1668, metadata !266), !dbg !1674
  %0 = getelementptr inbounds [14 x i8], [14 x i8]* %buf, i16 0, i16 0, !dbg !1675
  call void @llvm.lifetime.start(i64 14, i8* nonnull %0) #10, !dbg !1675
  tail call void @llvm.dbg.declare(metadata [14 x i8]* %buf, metadata !1669, metadata !266), !dbg !1676
  tail call void @llvm.dbg.value(metadata i32 %num, i64 0, metadata !990, metadata !266), !dbg !1677
  tail call void @llvm.dbg.value(metadata i8* %0, i64 0, metadata !995, metadata !266), !dbg !1679
  tail call void @llvm.dbg.value(metadata i16 10, i64 0, metadata !996, metadata !266), !dbg !1680
  %call.i = call i8* @__ltoa(i32 %num, i8* nonnull %0, i16 10), !dbg !1681
  %call4 = call i16 @strlen(i8* nonnull %0) #9, !dbg !1682
  call void @llvm.dbg.value(metadata %class.String* %this, i64 0, metadata !1290, metadata !266) #10, !dbg !1683
  call void @llvm.dbg.value(metadata i8* %0, i64 0, metadata !1293, metadata !266) #10, !dbg !1686
  call void @llvm.dbg.value(metadata i16 %call4, i64 0, metadata !1294, metadata !266) #10, !dbg !1687
  %len.i = getelementptr inbounds %class.String, %class.String* %this, i16 0, i32 2, !dbg !1688
  %1 = load i16, i16* %len.i, align 1, !dbg !1688, !tbaa !288
  %add.i = add i16 %1, %call4, !dbg !1689
  call void @llvm.dbg.value(metadata i16 %add.i, i64 0, metadata !1295, metadata !266) #10, !dbg !1690
  %cmp.i = icmp eq i16 %call4, 0, !dbg !1691
  br i1 %cmp.i, label %_ZN6String6concatEPKcj.exit, label %if.end3.i, !dbg !1692

if.end3.i:                                        ; preds = %entry
  call void @llvm.dbg.value(metadata %class.String* %this, i64 0, metadata !304, metadata !266) #10, !dbg !1693
  call void @llvm.dbg.value(metadata i16 %add.i, i64 0, metadata !307, metadata !266) #10, !dbg !1695
  %buffer.i.i = getelementptr inbounds %class.String, %class.String* %this, i16 0, i32 0, !dbg !1696
  %2 = load i8*, i8** %buffer.i.i, align 1, !dbg !1696, !tbaa !277
  %tobool.i.i = icmp eq i8* %2, null, !dbg !1696
  br i1 %tobool.i.i, label %if.end.i.i, label %land.lhs.true.i.i, !dbg !1697

land.lhs.true.i.i:                                ; preds = %if.end3.i
  %capacity.i.i = getelementptr inbounds %class.String, %class.String* %this, i16 0, i32 1, !dbg !1698
  %3 = load i16, i16* %capacity.i.i, align 1, !dbg !1698, !tbaa !285
  %cmp.i.i = icmp ult i16 %3, %add.i, !dbg !1699
  br i1 %cmp.i.i, label %if.end.i.i, label %if.end6.i, !dbg !1700

if.end.i.i:                                       ; preds = %land.lhs.true.i.i, %if.end3.i
  call void @llvm.dbg.value(metadata %class.String* %this, i64 0, metadata !312, metadata !266) #10, !dbg !1701
  call void @llvm.dbg.value(metadata i16 %add.i, i64 0, metadata !315, metadata !266) #10, !dbg !1703
  %add.i.i.i = add i16 %add.i, 1, !dbg !1704
  %call.i.i.i = call noalias i8* @realloc(i8* %2, i16 %add.i.i.i) #10, !dbg !1705
  call void @llvm.dbg.value(metadata i8* %call.i.i.i, i64 0, metadata !316, metadata !266) #10, !dbg !1706
  %tobool.i.i.i = icmp eq i8* %call.i.i.i, null, !dbg !1707
  br i1 %tobool.i.i.i, label %_ZN6String6concatEPKcj.exit, label %if.then3.i.i, !dbg !1708

if.then3.i.i:                                     ; preds = %if.end.i.i
  store i8* %call.i.i.i, i8** %buffer.i.i, align 1, !dbg !1709, !tbaa !277
  %capacity.i.i.i = getelementptr inbounds %class.String, %class.String* %this, i16 0, i32 1, !dbg !1710
  store i16 %add.i, i16* %capacity.i.i.i, align 1, !dbg !1711, !tbaa !285
  %4 = load i16, i16* %len.i, align 1, !dbg !1712, !tbaa !288
  %cmp4.i.i = icmp eq i16 %4, 0, !dbg !1713
  br i1 %cmp4.i.i, label %if.then5.i.i, label %if.end6.i, !dbg !1714

if.then5.i.i:                                     ; preds = %if.then3.i.i
  store i8 0, i8* %call.i.i.i, align 1, !dbg !1715, !tbaa !337
  br label %if.end6.i, !dbg !1716

if.end6.i:                                        ; preds = %if.then5.i.i, %if.then3.i.i, %land.lhs.true.i.i
  %5 = phi i16 [ %1, %land.lhs.true.i.i ], [ 0, %if.then5.i.i ], [ %4, %if.then3.i.i ], !dbg !1717
  %6 = phi i8* [ %2, %land.lhs.true.i.i ], [ %call.i.i.i, %if.then5.i.i ], [ %call.i.i.i, %if.then3.i.i ], !dbg !1718
  %add.ptr.i = getelementptr inbounds i8, i8* %6, i16 %5, !dbg !1719
  %call8.i = call i8* @strcpy(i8* %add.ptr.i, i8* nonnull %0) #10, !dbg !1720
  store i16 %add.i, i16* %len.i, align 1, !dbg !1721, !tbaa !288
  br label %_ZN6String6concatEPKcj.exit, !dbg !1722

_ZN6String6concatEPKcj.exit:                      ; preds = %entry, %if.end.i.i, %if.end6.i
  %retval.0.i = phi i8 [ 1, %if.end6.i ], [ 1, %entry ], [ 0, %if.end.i.i ]
  call void @llvm.lifetime.end(i64 14, i8* nonnull %0) #10, !dbg !1723
  ret i8 %retval.0.i, !dbg !1724
}

define zeroext i8 @_ZN6String6concatEm(%class.String* nocapture %this, i32 %num) local_unnamed_addr #3 align 2 !dbg !1725 {
entry:
  %buf = alloca [13 x i8], align 1
  tail call void @llvm.dbg.value(metadata %class.String* %this, i64 0, metadata !1727, metadata !266), !dbg !1733
  tail call void @llvm.dbg.value(metadata i32 %num, i64 0, metadata !1728, metadata !266), !dbg !1734
  %0 = getelementptr inbounds [13 x i8], [13 x i8]* %buf, i16 0, i16 0, !dbg !1735
  call void @llvm.lifetime.start(i64 13, i8* nonnull %0) #10, !dbg !1735
  tail call void @llvm.dbg.declare(metadata [13 x i8]* %buf, metadata !1729, metadata !266), !dbg !1736
  tail call void @llvm.dbg.value(metadata i32 %num, i64 0, metadata !1073, metadata !266), !dbg !1737
  tail call void @llvm.dbg.value(metadata i8* %0, i64 0, metadata !1078, metadata !266), !dbg !1739
  tail call void @llvm.dbg.value(metadata i16 10, i64 0, metadata !1079, metadata !266), !dbg !1740
  %call.i = call i8* @__ultoa(i32 %num, i8* nonnull %0, i16 10), !dbg !1741
  %call4 = call i16 @strlen(i8* nonnull %0) #9, !dbg !1742
  call void @llvm.dbg.value(metadata %class.String* %this, i64 0, metadata !1290, metadata !266) #10, !dbg !1743
  call void @llvm.dbg.value(metadata i8* %0, i64 0, metadata !1293, metadata !266) #10, !dbg !1746
  call void @llvm.dbg.value(metadata i16 %call4, i64 0, metadata !1294, metadata !266) #10, !dbg !1747
  %len.i = getelementptr inbounds %class.String, %class.String* %this, i16 0, i32 2, !dbg !1748
  %1 = load i16, i16* %len.i, align 1, !dbg !1748, !tbaa !288
  %add.i = add i16 %1, %call4, !dbg !1749
  call void @llvm.dbg.value(metadata i16 %add.i, i64 0, metadata !1295, metadata !266) #10, !dbg !1750
  %cmp.i = icmp eq i16 %call4, 0, !dbg !1751
  br i1 %cmp.i, label %_ZN6String6concatEPKcj.exit, label %if.end3.i, !dbg !1752

if.end3.i:                                        ; preds = %entry
  call void @llvm.dbg.value(metadata %class.String* %this, i64 0, metadata !304, metadata !266) #10, !dbg !1753
  call void @llvm.dbg.value(metadata i16 %add.i, i64 0, metadata !307, metadata !266) #10, !dbg !1755
  %buffer.i.i = getelementptr inbounds %class.String, %class.String* %this, i16 0, i32 0, !dbg !1756
  %2 = load i8*, i8** %buffer.i.i, align 1, !dbg !1756, !tbaa !277
  %tobool.i.i = icmp eq i8* %2, null, !dbg !1756
  br i1 %tobool.i.i, label %if.end.i.i, label %land.lhs.true.i.i, !dbg !1757

land.lhs.true.i.i:                                ; preds = %if.end3.i
  %capacity.i.i = getelementptr inbounds %class.String, %class.String* %this, i16 0, i32 1, !dbg !1758
  %3 = load i16, i16* %capacity.i.i, align 1, !dbg !1758, !tbaa !285
  %cmp.i.i = icmp ult i16 %3, %add.i, !dbg !1759
  br i1 %cmp.i.i, label %if.end.i.i, label %if.end6.i, !dbg !1760

if.end.i.i:                                       ; preds = %land.lhs.true.i.i, %if.end3.i
  call void @llvm.dbg.value(metadata %class.String* %this, i64 0, metadata !312, metadata !266) #10, !dbg !1761
  call void @llvm.dbg.value(metadata i16 %add.i, i64 0, metadata !315, metadata !266) #10, !dbg !1763
  %add.i.i.i = add i16 %add.i, 1, !dbg !1764
  %call.i.i.i = call noalias i8* @realloc(i8* %2, i16 %add.i.i.i) #10, !dbg !1765
  call void @llvm.dbg.value(metadata i8* %call.i.i.i, i64 0, metadata !316, metadata !266) #10, !dbg !1766
  %tobool.i.i.i = icmp eq i8* %call.i.i.i, null, !dbg !1767
  br i1 %tobool.i.i.i, label %_ZN6String6concatEPKcj.exit, label %if.then3.i.i, !dbg !1768

if.then3.i.i:                                     ; preds = %if.end.i.i
  store i8* %call.i.i.i, i8** %buffer.i.i, align 1, !dbg !1769, !tbaa !277
  %capacity.i.i.i = getelementptr inbounds %class.String, %class.String* %this, i16 0, i32 1, !dbg !1770
  store i16 %add.i, i16* %capacity.i.i.i, align 1, !dbg !1771, !tbaa !285
  %4 = load i16, i16* %len.i, align 1, !dbg !1772, !tbaa !288
  %cmp4.i.i = icmp eq i16 %4, 0, !dbg !1773
  br i1 %cmp4.i.i, label %if.then5.i.i, label %if.end6.i, !dbg !1774

if.then5.i.i:                                     ; preds = %if.then3.i.i
  store i8 0, i8* %call.i.i.i, align 1, !dbg !1775, !tbaa !337
  br label %if.end6.i, !dbg !1776

if.end6.i:                                        ; preds = %if.then5.i.i, %if.then3.i.i, %land.lhs.true.i.i
  %5 = phi i16 [ %1, %land.lhs.true.i.i ], [ 0, %if.then5.i.i ], [ %4, %if.then3.i.i ], !dbg !1777
  %6 = phi i8* [ %2, %land.lhs.true.i.i ], [ %call.i.i.i, %if.then5.i.i ], [ %call.i.i.i, %if.then3.i.i ], !dbg !1778
  %add.ptr.i = getelementptr inbounds i8, i8* %6, i16 %5, !dbg !1779
  %call8.i = call i8* @strcpy(i8* %add.ptr.i, i8* nonnull %0) #10, !dbg !1780
  store i16 %add.i, i16* %len.i, align 1, !dbg !1781, !tbaa !288
  br label %_ZN6String6concatEPKcj.exit, !dbg !1782

_ZN6String6concatEPKcj.exit:                      ; preds = %entry, %if.end.i.i, %if.end6.i
  %retval.0.i = phi i8 [ 1, %if.end6.i ], [ 1, %entry ], [ 0, %if.end.i.i ]
  call void @llvm.lifetime.end(i64 13, i8* nonnull %0) #10, !dbg !1783
  ret i8 %retval.0.i, !dbg !1784
}

define zeroext i8 @_ZN6String6concatEf(%class.String* nocapture %this, float %num) local_unnamed_addr #3 align 2 !dbg !1785 {
entry:
  %buf = alloca [20 x i8], align 1
  tail call void @llvm.dbg.value(metadata %class.String* %this, i64 0, metadata !1787, metadata !266), !dbg !1794
  tail call void @llvm.dbg.value(metadata float %num, i64 0, metadata !1788, metadata !266), !dbg !1795
  %0 = getelementptr inbounds [20 x i8], [20 x i8]* %buf, i16 0, i16 0, !dbg !1796
  call void @llvm.lifetime.start(i64 20, i8* nonnull %0) #10, !dbg !1796
  tail call void @llvm.dbg.declare(metadata [20 x i8]* %buf, metadata !1789, metadata !266), !dbg !1797
  %call = call i8* @dtostrf(float %num, i8 signext 4, i8 zeroext 2, i8* nonnull %0), !dbg !1798
  call void @llvm.dbg.value(metadata i8* %call, i64 0, metadata !1793, metadata !266), !dbg !1799
  %call2 = call i16 @strlen(i8* %call) #9, !dbg !1800
  call void @llvm.dbg.value(metadata %class.String* %this, i64 0, metadata !1290, metadata !266) #10, !dbg !1801
  call void @llvm.dbg.value(metadata i8* %call, i64 0, metadata !1293, metadata !266) #10, !dbg !1804
  call void @llvm.dbg.value(metadata i16 %call2, i64 0, metadata !1294, metadata !266) #10, !dbg !1805
  %len.i = getelementptr inbounds %class.String, %class.String* %this, i16 0, i32 2, !dbg !1806
  %1 = load i16, i16* %len.i, align 1, !dbg !1806, !tbaa !288
  %add.i = add i16 %1, %call2, !dbg !1807
  call void @llvm.dbg.value(metadata i16 %add.i, i64 0, metadata !1295, metadata !266) #10, !dbg !1808
  %tobool.i = icmp eq i8* %call, null, !dbg !1809
  br i1 %tobool.i, label %_ZN6String6concatEPKcj.exit, label %if.end.i, !dbg !1810

if.end.i:                                         ; preds = %entry
  %cmp.i = icmp eq i16 %call2, 0, !dbg !1811
  br i1 %cmp.i, label %_ZN6String6concatEPKcj.exit, label %if.end3.i, !dbg !1812

if.end3.i:                                        ; preds = %if.end.i
  call void @llvm.dbg.value(metadata %class.String* %this, i64 0, metadata !304, metadata !266) #10, !dbg !1813
  call void @llvm.dbg.value(metadata i16 %add.i, i64 0, metadata !307, metadata !266) #10, !dbg !1815
  %buffer.i.i = getelementptr inbounds %class.String, %class.String* %this, i16 0, i32 0, !dbg !1816
  %2 = load i8*, i8** %buffer.i.i, align 1, !dbg !1816, !tbaa !277
  %tobool.i.i = icmp eq i8* %2, null, !dbg !1816
  br i1 %tobool.i.i, label %if.end.i.i, label %land.lhs.true.i.i, !dbg !1817

land.lhs.true.i.i:                                ; preds = %if.end3.i
  %capacity.i.i = getelementptr inbounds %class.String, %class.String* %this, i16 0, i32 1, !dbg !1818
  %3 = load i16, i16* %capacity.i.i, align 1, !dbg !1818, !tbaa !285
  %cmp.i.i = icmp ult i16 %3, %add.i, !dbg !1819
  br i1 %cmp.i.i, label %if.end.i.i, label %if.end6.i, !dbg !1820

if.end.i.i:                                       ; preds = %land.lhs.true.i.i, %if.end3.i
  call void @llvm.dbg.value(metadata %class.String* %this, i64 0, metadata !312, metadata !266) #10, !dbg !1821
  call void @llvm.dbg.value(metadata i16 %add.i, i64 0, metadata !315, metadata !266) #10, !dbg !1823
  %add.i.i.i = add i16 %add.i, 1, !dbg !1824
  %call.i.i.i = call noalias i8* @realloc(i8* %2, i16 %add.i.i.i) #10, !dbg !1825
  call void @llvm.dbg.value(metadata i8* %call.i.i.i, i64 0, metadata !316, metadata !266) #10, !dbg !1826
  %tobool.i.i.i = icmp eq i8* %call.i.i.i, null, !dbg !1827
  br i1 %tobool.i.i.i, label %_ZN6String6concatEPKcj.exit, label %if.then3.i.i, !dbg !1828

if.then3.i.i:                                     ; preds = %if.end.i.i
  store i8* %call.i.i.i, i8** %buffer.i.i, align 1, !dbg !1829, !tbaa !277
  %capacity.i.i.i = getelementptr inbounds %class.String, %class.String* %this, i16 0, i32 1, !dbg !1830
  store i16 %add.i, i16* %capacity.i.i.i, align 1, !dbg !1831, !tbaa !285
  %4 = load i16, i16* %len.i, align 1, !dbg !1832, !tbaa !288
  %cmp4.i.i = icmp eq i16 %4, 0, !dbg !1833
  br i1 %cmp4.i.i, label %if.then5.i.i, label %if.end6.i, !dbg !1834

if.then5.i.i:                                     ; preds = %if.then3.i.i
  store i8 0, i8* %call.i.i.i, align 1, !dbg !1835, !tbaa !337
  br label %if.end6.i, !dbg !1836

if.end6.i:                                        ; preds = %if.then5.i.i, %if.then3.i.i, %land.lhs.true.i.i
  %5 = phi i16 [ %1, %land.lhs.true.i.i ], [ 0, %if.then5.i.i ], [ %4, %if.then3.i.i ], !dbg !1837
  %6 = phi i8* [ %2, %land.lhs.true.i.i ], [ %call.i.i.i, %if.then5.i.i ], [ %call.i.i.i, %if.then3.i.i ], !dbg !1838
  %add.ptr.i = getelementptr inbounds i8, i8* %6, i16 %5, !dbg !1839
  %call8.i = call i8* @strcpy(i8* %add.ptr.i, i8* nonnull %call) #10, !dbg !1840
  store i16 %add.i, i16* %len.i, align 1, !dbg !1841, !tbaa !288
  br label %_ZN6String6concatEPKcj.exit, !dbg !1842

_ZN6String6concatEPKcj.exit:                      ; preds = %entry, %if.end.i, %if.end.i.i, %if.end6.i
  %retval.0.i = phi i8 [ 1, %if.end6.i ], [ 0, %entry ], [ 1, %if.end.i ], [ 0, %if.end.i.i ]
  call void @llvm.lifetime.end(i64 20, i8* nonnull %0) #10, !dbg !1843
  ret i8 %retval.0.i, !dbg !1844
}

define zeroext i8 @_ZN6String6concatEd(%class.String* nocapture %this, float %num) local_unnamed_addr #3 align 2 !dbg !1845 {
entry:
  %buf = alloca [20 x i8], align 1
  tail call void @llvm.dbg.value(metadata %class.String* %this, i64 0, metadata !1847, metadata !266), !dbg !1851
  tail call void @llvm.dbg.value(metadata float %num, i64 0, metadata !1848, metadata !266), !dbg !1852
  %0 = getelementptr inbounds [20 x i8], [20 x i8]* %buf, i16 0, i16 0, !dbg !1853
  call void @llvm.lifetime.start(i64 20, i8* nonnull %0) #10, !dbg !1853
  tail call void @llvm.dbg.declare(metadata [20 x i8]* %buf, metadata !1849, metadata !266), !dbg !1854
  %call = call i8* @dtostrf(float %num, i8 signext 4, i8 zeroext 2, i8* nonnull %0), !dbg !1855
  call void @llvm.dbg.value(metadata i8* %call, i64 0, metadata !1850, metadata !266), !dbg !1856
  %call2 = call i16 @strlen(i8* %call) #9, !dbg !1857
  call void @llvm.dbg.value(metadata %class.String* %this, i64 0, metadata !1290, metadata !266) #10, !dbg !1858
  call void @llvm.dbg.value(metadata i8* %call, i64 0, metadata !1293, metadata !266) #10, !dbg !1861
  call void @llvm.dbg.value(metadata i16 %call2, i64 0, metadata !1294, metadata !266) #10, !dbg !1862
  %len.i = getelementptr inbounds %class.String, %class.String* %this, i16 0, i32 2, !dbg !1863
  %1 = load i16, i16* %len.i, align 1, !dbg !1863, !tbaa !288
  %add.i = add i16 %1, %call2, !dbg !1864
  call void @llvm.dbg.value(metadata i16 %add.i, i64 0, metadata !1295, metadata !266) #10, !dbg !1865
  %tobool.i = icmp eq i8* %call, null, !dbg !1866
  br i1 %tobool.i, label %_ZN6String6concatEPKcj.exit, label %if.end.i, !dbg !1867

if.end.i:                                         ; preds = %entry
  %cmp.i = icmp eq i16 %call2, 0, !dbg !1868
  br i1 %cmp.i, label %_ZN6String6concatEPKcj.exit, label %if.end3.i, !dbg !1869

if.end3.i:                                        ; preds = %if.end.i
  call void @llvm.dbg.value(metadata %class.String* %this, i64 0, metadata !304, metadata !266) #10, !dbg !1870
  call void @llvm.dbg.value(metadata i16 %add.i, i64 0, metadata !307, metadata !266) #10, !dbg !1872
  %buffer.i.i = getelementptr inbounds %class.String, %class.String* %this, i16 0, i32 0, !dbg !1873
  %2 = load i8*, i8** %buffer.i.i, align 1, !dbg !1873, !tbaa !277
  %tobool.i.i = icmp eq i8* %2, null, !dbg !1873
  br i1 %tobool.i.i, label %if.end.i.i, label %land.lhs.true.i.i, !dbg !1874

land.lhs.true.i.i:                                ; preds = %if.end3.i
  %capacity.i.i = getelementptr inbounds %class.String, %class.String* %this, i16 0, i32 1, !dbg !1875
  %3 = load i16, i16* %capacity.i.i, align 1, !dbg !1875, !tbaa !285
  %cmp.i.i = icmp ult i16 %3, %add.i, !dbg !1876
  br i1 %cmp.i.i, label %if.end.i.i, label %if.end6.i, !dbg !1877

if.end.i.i:                                       ; preds = %land.lhs.true.i.i, %if.end3.i
  call void @llvm.dbg.value(metadata %class.String* %this, i64 0, metadata !312, metadata !266) #10, !dbg !1878
  call void @llvm.dbg.value(metadata i16 %add.i, i64 0, metadata !315, metadata !266) #10, !dbg !1880
  %add.i.i.i = add i16 %add.i, 1, !dbg !1881
  %call.i.i.i = call noalias i8* @realloc(i8* %2, i16 %add.i.i.i) #10, !dbg !1882
  call void @llvm.dbg.value(metadata i8* %call.i.i.i, i64 0, metadata !316, metadata !266) #10, !dbg !1883
  %tobool.i.i.i = icmp eq i8* %call.i.i.i, null, !dbg !1884
  br i1 %tobool.i.i.i, label %_ZN6String6concatEPKcj.exit, label %if.then3.i.i, !dbg !1885

if.then3.i.i:                                     ; preds = %if.end.i.i
  store i8* %call.i.i.i, i8** %buffer.i.i, align 1, !dbg !1886, !tbaa !277
  %capacity.i.i.i = getelementptr inbounds %class.String, %class.String* %this, i16 0, i32 1, !dbg !1887
  store i16 %add.i, i16* %capacity.i.i.i, align 1, !dbg !1888, !tbaa !285
  %4 = load i16, i16* %len.i, align 1, !dbg !1889, !tbaa !288
  %cmp4.i.i = icmp eq i16 %4, 0, !dbg !1890
  br i1 %cmp4.i.i, label %if.then5.i.i, label %if.end6.i, !dbg !1891

if.then5.i.i:                                     ; preds = %if.then3.i.i
  store i8 0, i8* %call.i.i.i, align 1, !dbg !1892, !tbaa !337
  br label %if.end6.i, !dbg !1893

if.end6.i:                                        ; preds = %if.then5.i.i, %if.then3.i.i, %land.lhs.true.i.i
  %5 = phi i16 [ %1, %land.lhs.true.i.i ], [ 0, %if.then5.i.i ], [ %4, %if.then3.i.i ], !dbg !1894
  %6 = phi i8* [ %2, %land.lhs.true.i.i ], [ %call.i.i.i, %if.then5.i.i ], [ %call.i.i.i, %if.then3.i.i ], !dbg !1895
  %add.ptr.i = getelementptr inbounds i8, i8* %6, i16 %5, !dbg !1896
  %call8.i = call i8* @strcpy(i8* %add.ptr.i, i8* nonnull %call) #10, !dbg !1897
  store i16 %add.i, i16* %len.i, align 1, !dbg !1898, !tbaa !288
  br label %_ZN6String6concatEPKcj.exit, !dbg !1899

_ZN6String6concatEPKcj.exit:                      ; preds = %entry, %if.end.i, %if.end.i.i, %if.end6.i
  %retval.0.i = phi i8 [ 1, %if.end6.i ], [ 0, %entry ], [ 1, %if.end.i ], [ 0, %if.end.i.i ]
  call void @llvm.lifetime.end(i64 20, i8* nonnull %0) #10, !dbg !1900
  ret i8 %retval.0.i, !dbg !1901
}

define zeroext i8 @_ZN6String6concatEPK19__FlashStringHelper(%class.String* nocapture %this, %class.__FlashStringHelper* %str) local_unnamed_addr #3 align 2 !dbg !1902 {
entry:
  tail call void @llvm.dbg.value(metadata %class.String* %this, i64 0, metadata !1904, metadata !266), !dbg !1908
  tail call void @llvm.dbg.value(metadata %class.__FlashStringHelper* %str, i64 0, metadata !1905, metadata !266), !dbg !1909
  %tobool = icmp eq %class.__FlashStringHelper* %str, null, !dbg !1910
  br i1 %tobool, label %return, label %if.end, !dbg !1912

if.end:                                           ; preds = %entry
  %0 = bitcast %class.__FlashStringHelper* %str to i8*, !dbg !1913
  tail call void @llvm.dbg.value(metadata i8* %0, i64 0, metadata !520, metadata !266) #10, !dbg !1914
  %call.i = tail call i16 @__strlen_P(i8* %0) #1, !dbg !1916
  tail call void @llvm.dbg.value(metadata i16 %call.i, i64 0, metadata !1906, metadata !266), !dbg !1917
  %cmp = icmp eq i16 %call.i, 0, !dbg !1918
  br i1 %cmp, label %return, label %if.end3, !dbg !1920

if.end3:                                          ; preds = %if.end
  %len = getelementptr inbounds %class.String, %class.String* %this, i16 0, i32 2, !dbg !1921
  %1 = load i16, i16* %len, align 1, !dbg !1921, !tbaa !288
  %add = add i16 %1, %call.i, !dbg !1922
  tail call void @llvm.dbg.value(metadata i16 %add, i64 0, metadata !1907, metadata !266), !dbg !1923
  tail call void @llvm.dbg.value(metadata %class.String* %this, i64 0, metadata !304, metadata !266) #10, !dbg !1924
  tail call void @llvm.dbg.value(metadata i16 %add, i64 0, metadata !307, metadata !266) #10, !dbg !1927
  %buffer.i = getelementptr inbounds %class.String, %class.String* %this, i16 0, i32 0, !dbg !1928
  %2 = load i8*, i8** %buffer.i, align 1, !dbg !1928, !tbaa !277
  %tobool.i = icmp eq i8* %2, null, !dbg !1928
  br i1 %tobool.i, label %if.end.i, label %land.lhs.true.i, !dbg !1929

land.lhs.true.i:                                  ; preds = %if.end3
  %capacity.i = getelementptr inbounds %class.String, %class.String* %this, i16 0, i32 1, !dbg !1930
  %3 = load i16, i16* %capacity.i, align 1, !dbg !1930, !tbaa !285
  %cmp.i = icmp ult i16 %3, %add, !dbg !1931
  br i1 %cmp.i, label %if.end.i, label %if.end7, !dbg !1932

if.end.i:                                         ; preds = %land.lhs.true.i, %if.end3
  tail call void @llvm.dbg.value(metadata %class.String* %this, i64 0, metadata !312, metadata !266) #10, !dbg !1933
  tail call void @llvm.dbg.value(metadata i16 %add, i64 0, metadata !315, metadata !266) #10, !dbg !1935
  %add.i.i = add i16 %add, 1, !dbg !1936
  %call.i.i = tail call noalias i8* @realloc(i8* %2, i16 %add.i.i) #10, !dbg !1937
  tail call void @llvm.dbg.value(metadata i8* %call.i.i, i64 0, metadata !316, metadata !266) #10, !dbg !1938
  %tobool.i.i = icmp eq i8* %call.i.i, null, !dbg !1939
  br i1 %tobool.i.i, label %return, label %if.then3.i, !dbg !1940

if.then3.i:                                       ; preds = %if.end.i
  store i8* %call.i.i, i8** %buffer.i, align 1, !dbg !1941, !tbaa !277
  %capacity.i.i = getelementptr inbounds %class.String, %class.String* %this, i16 0, i32 1, !dbg !1942
  store i16 %add, i16* %capacity.i.i, align 1, !dbg !1943, !tbaa !285
  %4 = load i16, i16* %len, align 1, !dbg !1944, !tbaa !288
  %cmp4.i = icmp eq i16 %4, 0, !dbg !1945
  br i1 %cmp4.i, label %if.then5.i, label %if.end7, !dbg !1946

if.then5.i:                                       ; preds = %if.then3.i
  store i8 0, i8* %call.i.i, align 1, !dbg !1947, !tbaa !337
  br label %if.end7, !dbg !1948

if.end7:                                          ; preds = %land.lhs.true.i, %if.then5.i, %if.then3.i
  %5 = phi i16 [ %1, %land.lhs.true.i ], [ 0, %if.then5.i ], [ %4, %if.then3.i ], !dbg !1949
  %6 = phi i8* [ %2, %land.lhs.true.i ], [ %call.i.i, %if.then5.i ], [ %call.i.i, %if.then3.i ], !dbg !1950
  %add.ptr = getelementptr inbounds i8, i8* %6, i16 %5, !dbg !1951
  %call9 = tail call i8* @strcpy_P(i8* %add.ptr, i8* %0), !dbg !1952
  store i16 %add, i16* %len, align 1, !dbg !1953, !tbaa !288
  br label %return, !dbg !1954

return:                                           ; preds = %if.end.i, %if.end, %if.end7, %entry
  %retval.2 = phi i8 [ 0, %entry ], [ 1, %if.end ], [ 1, %if.end7 ], [ 0, %if.end.i ]
  ret i8 %retval.2, !dbg !1955
}

; Function Attrs: nounwind
define nonnull dereferenceable(6) %class.StringSumHelper* @_ZplRK15StringSumHelperRK6String(%class.StringSumHelper* returned dereferenceable(6) %lhs, %class.String* nocapture readonly dereferenceable(6) %rhs) local_unnamed_addr #0 !dbg !1957 {
entry:
  tail call void @llvm.dbg.value(metadata %class.StringSumHelper* %lhs, i64 0, metadata !1998, metadata !266), !dbg !2001
  tail call void @llvm.dbg.value(metadata %class.String* %rhs, i64 0, metadata !1999, metadata !266), !dbg !2002
  tail call void @llvm.dbg.value(metadata %class.StringSumHelper* %lhs, i64 0, metadata !2000, metadata !266), !dbg !2003
  %buffer = getelementptr inbounds %class.String, %class.String* %rhs, i16 0, i32 0, !dbg !2004
  %0 = load i8*, i8** %buffer, align 1, !dbg !2004, !tbaa !277
  %len = getelementptr inbounds %class.String, %class.String* %rhs, i16 0, i32 2, !dbg !2006
  %1 = load i16, i16* %len, align 1, !dbg !2006, !tbaa !288
  tail call void @llvm.dbg.value(metadata i8* %0, i64 0, metadata !1293, metadata !266) #10, !dbg !2007
  tail call void @llvm.dbg.value(metadata i16 %1, i64 0, metadata !1294, metadata !266) #10, !dbg !2009
  %len.i = getelementptr inbounds %class.StringSumHelper, %class.StringSumHelper* %lhs, i16 0, i32 0, i32 2, !dbg !2010
  %2 = load i16, i16* %len.i, align 1, !dbg !2010, !tbaa !288
  %add.i = add i16 %2, %1, !dbg !2011
  tail call void @llvm.dbg.value(metadata i16 %add.i, i64 0, metadata !1295, metadata !266) #10, !dbg !2012
  %tobool.i = icmp eq i8* %0, null, !dbg !2013
  br i1 %tobool.i, label %entry.if.then_crit_edge, label %if.end.i, !dbg !2014

entry.if.then_crit_edge:                          ; preds = %entry
  %.pre = getelementptr inbounds %class.StringSumHelper, %class.StringSumHelper* %lhs, i16 0, i32 0, i32 0, !dbg !2015
  br label %if.then, !dbg !2014

if.end.i:                                         ; preds = %entry
  %cmp.i = icmp eq i16 %1, 0, !dbg !2018
  br i1 %cmp.i, label %if.end, label %if.end3.i, !dbg !2019

if.end3.i:                                        ; preds = %if.end.i
  tail call void @llvm.dbg.value(metadata i16 %add.i, i64 0, metadata !307, metadata !266) #10, !dbg !2020
  %buffer.i.i = getelementptr inbounds %class.StringSumHelper, %class.StringSumHelper* %lhs, i16 0, i32 0, i32 0, !dbg !2022
  %3 = load i8*, i8** %buffer.i.i, align 1, !dbg !2022, !tbaa !277
  %tobool.i.i = icmp eq i8* %3, null, !dbg !2022
  br i1 %tobool.i.i, label %if.end.i.i, label %land.lhs.true.i.i, !dbg !2023

land.lhs.true.i.i:                                ; preds = %if.end3.i
  %capacity.i.i = getelementptr inbounds %class.StringSumHelper, %class.StringSumHelper* %lhs, i16 0, i32 0, i32 1, !dbg !2024
  %4 = load i16, i16* %capacity.i.i, align 1, !dbg !2024, !tbaa !285
  %cmp.i.i = icmp ult i16 %4, %add.i, !dbg !2025
  br i1 %cmp.i.i, label %if.end.i.i, label %if.end6.i, !dbg !2026

if.end.i.i:                                       ; preds = %land.lhs.true.i.i, %if.end3.i
  tail call void @llvm.dbg.value(metadata i16 %add.i, i64 0, metadata !315, metadata !266) #10, !dbg !2027
  %add.i.i.i = add i16 %add.i, 1, !dbg !2029
  %call.i.i.i = tail call noalias i8* @realloc(i8* %3, i16 %add.i.i.i) #10, !dbg !2030
  tail call void @llvm.dbg.value(metadata i8* %call.i.i.i, i64 0, metadata !316, metadata !266) #10, !dbg !2031
  %tobool.i.i.i = icmp eq i8* %call.i.i.i, null, !dbg !2032
  br i1 %tobool.i.i.i, label %if.then, label %if.then3.i.i, !dbg !2033

if.then3.i.i:                                     ; preds = %if.end.i.i
  store i8* %call.i.i.i, i8** %buffer.i.i, align 1, !dbg !2034, !tbaa !277
  %capacity.i.i.i = getelementptr inbounds %class.StringSumHelper, %class.StringSumHelper* %lhs, i16 0, i32 0, i32 1, !dbg !2035
  store i16 %add.i, i16* %capacity.i.i.i, align 1, !dbg !2036, !tbaa !285
  %5 = load i16, i16* %len.i, align 1, !dbg !2037, !tbaa !288
  %cmp4.i.i = icmp eq i16 %5, 0, !dbg !2038
  br i1 %cmp4.i.i, label %if.then5.i.i, label %if.end6.i, !dbg !2039

if.then5.i.i:                                     ; preds = %if.then3.i.i
  store i8 0, i8* %call.i.i.i, align 1, !dbg !2040, !tbaa !337
  br label %if.end6.i, !dbg !2041

if.end6.i:                                        ; preds = %if.then5.i.i, %if.then3.i.i, %land.lhs.true.i.i
  %6 = phi i16 [ %2, %land.lhs.true.i.i ], [ 0, %if.then5.i.i ], [ %5, %if.then3.i.i ], !dbg !2042
  %7 = phi i8* [ %3, %land.lhs.true.i.i ], [ %call.i.i.i, %if.then5.i.i ], [ %call.i.i.i, %if.then3.i.i ], !dbg !2043
  %add.ptr.i = getelementptr inbounds i8, i8* %7, i16 %6, !dbg !2044
  %call8.i = tail call i8* @strcpy(i8* %add.ptr.i, i8* nonnull %0) #10, !dbg !2045
  store i16 %add.i, i16* %len.i, align 1, !dbg !2046, !tbaa !288
  br label %if.end, !dbg !2047

if.then:                                          ; preds = %entry.if.then_crit_edge, %if.end.i.i
  %buffer.i.pre-phi = phi i8** [ %.pre, %entry.if.then_crit_edge ], [ %buffer.i.i, %if.end.i.i ], !dbg !2015
  %8 = load i8*, i8** %buffer.i.pre-phi, align 1, !dbg !2015, !tbaa !277
  %tobool.i5 = icmp eq i8* %8, null, !dbg !2015
  br i1 %tobool.i5, label %_ZN6String10invalidateEv.exit, label %if.then.i, !dbg !2048

if.then.i:                                        ; preds = %if.then
  tail call void @free(i8* nonnull %8) #10, !dbg !2049
  br label %_ZN6String10invalidateEv.exit, !dbg !2049

_ZN6String10invalidateEv.exit:                    ; preds = %if.then, %if.then.i
  store i8* null, i8** %buffer.i.pre-phi, align 1, !dbg !2050, !tbaa !277
  store i16 0, i16* %len.i, align 1, !dbg !2051, !tbaa !288
  %capacity.i = getelementptr inbounds %class.StringSumHelper, %class.StringSumHelper* %lhs, i16 0, i32 0, i32 1, !dbg !2052
  store i16 0, i16* %capacity.i, align 1, !dbg !2053, !tbaa !285
  br label %if.end, !dbg !2054

if.end:                                           ; preds = %if.end6.i, %if.end.i, %_ZN6String10invalidateEv.exit
  ret %class.StringSumHelper* %lhs, !dbg !2055
}

; Function Attrs: nounwind
define nonnull dereferenceable(6) %class.StringSumHelper* @_ZplRK15StringSumHelperPKc(%class.StringSumHelper* returned dereferenceable(6) %lhs, i8* readonly %cstr) local_unnamed_addr #0 !dbg !2056 {
entry:
  tail call void @llvm.dbg.value(metadata %class.StringSumHelper* %lhs, i64 0, metadata !2060, metadata !266), !dbg !2063
  tail call void @llvm.dbg.value(metadata i8* %cstr, i64 0, metadata !2061, metadata !266), !dbg !2064
  tail call void @llvm.dbg.value(metadata %class.StringSumHelper* %lhs, i64 0, metadata !2062, metadata !266), !dbg !2065
  %tobool = icmp eq i8* %cstr, null, !dbg !2066
  br i1 %tobool, label %entry.if.then_crit_edge, label %if.end.i, !dbg !2068

entry.if.then_crit_edge:                          ; preds = %entry
  %.pre = getelementptr inbounds %class.StringSumHelper, %class.StringSumHelper* %lhs, i16 0, i32 0, i32 0, !dbg !2069
  br label %if.then, !dbg !2068

if.end.i:                                         ; preds = %entry
  %call = tail call i16 @strlen(i8* nonnull %cstr) #9, !dbg !2072
  tail call void @llvm.dbg.value(metadata i8* %cstr, i64 0, metadata !1293, metadata !266) #10, !dbg !2074
  tail call void @llvm.dbg.value(metadata i16 %call, i64 0, metadata !1294, metadata !266) #10, !dbg !2077
  %len.i = getelementptr inbounds %class.StringSumHelper, %class.StringSumHelper* %lhs, i16 0, i32 0, i32 2, !dbg !2078
  %0 = load i16, i16* %len.i, align 1, !dbg !2078, !tbaa !288
  %add.i = add i16 %0, %call, !dbg !2079
  tail call void @llvm.dbg.value(metadata i16 %add.i, i64 0, metadata !1295, metadata !266) #10, !dbg !2080
  %cmp.i = icmp eq i16 %call, 0, !dbg !2081
  br i1 %cmp.i, label %if.end, label %if.end3.i, !dbg !2082

if.end3.i:                                        ; preds = %if.end.i
  tail call void @llvm.dbg.value(metadata i16 %add.i, i64 0, metadata !307, metadata !266) #10, !dbg !2083
  %buffer.i.i = getelementptr inbounds %class.StringSumHelper, %class.StringSumHelper* %lhs, i16 0, i32 0, i32 0, !dbg !2085
  %1 = load i8*, i8** %buffer.i.i, align 1, !dbg !2085, !tbaa !277
  %tobool.i.i = icmp eq i8* %1, null, !dbg !2085
  br i1 %tobool.i.i, label %if.end.i.i, label %land.lhs.true.i.i, !dbg !2086

land.lhs.true.i.i:                                ; preds = %if.end3.i
  %capacity.i.i = getelementptr inbounds %class.StringSumHelper, %class.StringSumHelper* %lhs, i16 0, i32 0, i32 1, !dbg !2087
  %2 = load i16, i16* %capacity.i.i, align 1, !dbg !2087, !tbaa !285
  %cmp.i.i = icmp ult i16 %2, %add.i, !dbg !2088
  br i1 %cmp.i.i, label %if.end.i.i, label %if.end6.i, !dbg !2089

if.end.i.i:                                       ; preds = %land.lhs.true.i.i, %if.end3.i
  tail call void @llvm.dbg.value(metadata i16 %add.i, i64 0, metadata !315, metadata !266) #10, !dbg !2090
  %add.i.i.i = add i16 %add.i, 1, !dbg !2092
  %call.i.i.i = tail call noalias i8* @realloc(i8* %1, i16 %add.i.i.i) #10, !dbg !2093
  tail call void @llvm.dbg.value(metadata i8* %call.i.i.i, i64 0, metadata !316, metadata !266) #10, !dbg !2094
  %tobool.i.i.i = icmp eq i8* %call.i.i.i, null, !dbg !2095
  br i1 %tobool.i.i.i, label %if.then, label %if.then3.i.i, !dbg !2096

if.then3.i.i:                                     ; preds = %if.end.i.i
  store i8* %call.i.i.i, i8** %buffer.i.i, align 1, !dbg !2097, !tbaa !277
  %capacity.i.i.i = getelementptr inbounds %class.StringSumHelper, %class.StringSumHelper* %lhs, i16 0, i32 0, i32 1, !dbg !2098
  store i16 %add.i, i16* %capacity.i.i.i, align 1, !dbg !2099, !tbaa !285
  %3 = load i16, i16* %len.i, align 1, !dbg !2100, !tbaa !288
  %cmp4.i.i = icmp eq i16 %3, 0, !dbg !2101
  br i1 %cmp4.i.i, label %if.then5.i.i, label %if.end6.i, !dbg !2102

if.then5.i.i:                                     ; preds = %if.then3.i.i
  store i8 0, i8* %call.i.i.i, align 1, !dbg !2103, !tbaa !337
  br label %if.end6.i, !dbg !2104

if.end6.i:                                        ; preds = %if.then5.i.i, %if.then3.i.i, %land.lhs.true.i.i
  %4 = phi i16 [ %0, %land.lhs.true.i.i ], [ 0, %if.then5.i.i ], [ %3, %if.then3.i.i ], !dbg !2105
  %5 = phi i8* [ %1, %land.lhs.true.i.i ], [ %call.i.i.i, %if.then5.i.i ], [ %call.i.i.i, %if.then3.i.i ], !dbg !2106
  %add.ptr.i = getelementptr inbounds i8, i8* %5, i16 %4, !dbg !2107
  %call8.i = tail call i8* @strcpy(i8* %add.ptr.i, i8* nonnull %cstr) #10, !dbg !2108
  store i16 %add.i, i16* %len.i, align 1, !dbg !2109, !tbaa !288
  br label %if.end, !dbg !2110

if.then:                                          ; preds = %entry.if.then_crit_edge, %if.end.i.i
  %buffer.i.pre-phi = phi i8** [ %.pre, %entry.if.then_crit_edge ], [ %buffer.i.i, %if.end.i.i ], !dbg !2069
  %6 = load i8*, i8** %buffer.i.pre-phi, align 1, !dbg !2069, !tbaa !277
  %tobool.i8 = icmp eq i8* %6, null, !dbg !2069
  br i1 %tobool.i8, label %_ZN6String10invalidateEv.exit, label %if.then.i, !dbg !2111

if.then.i:                                        ; preds = %if.then
  tail call void @free(i8* nonnull %6) #10, !dbg !2112
  br label %_ZN6String10invalidateEv.exit, !dbg !2112

_ZN6String10invalidateEv.exit:                    ; preds = %if.then, %if.then.i
  store i8* null, i8** %buffer.i.pre-phi, align 1, !dbg !2113, !tbaa !277
  %len.i9 = getelementptr inbounds %class.StringSumHelper, %class.StringSumHelper* %lhs, i16 0, i32 0, i32 2, !dbg !2114
  store i16 0, i16* %len.i9, align 1, !dbg !2115, !tbaa !288
  %capacity.i = getelementptr inbounds %class.StringSumHelper, %class.StringSumHelper* %lhs, i16 0, i32 0, i32 1, !dbg !2116
  store i16 0, i16* %capacity.i, align 1, !dbg !2117, !tbaa !285
  br label %if.end, !dbg !2118

if.end:                                           ; preds = %if.end.i, %if.end6.i, %_ZN6String10invalidateEv.exit
  ret %class.StringSumHelper* %lhs, !dbg !2119
}

; Function Attrs: nounwind
define nonnull dereferenceable(6) %class.StringSumHelper* @_ZplRK15StringSumHelperc(%class.StringSumHelper* returned dereferenceable(6) %lhs, i8 signext %c) local_unnamed_addr #0 !dbg !2120 {
entry:
  %buf.i = alloca [2 x i8], align 1
  tail call void @llvm.dbg.declare(metadata [2 x i8]* %buf.i, metadata !1437, metadata !266), !dbg !2127
  tail call void @llvm.dbg.value(metadata %class.StringSumHelper* %lhs, i64 0, metadata !2124, metadata !266), !dbg !2130
  tail call void @llvm.dbg.value(metadata i8 %c, i64 0, metadata !2125, metadata !266), !dbg !2131
  tail call void @llvm.dbg.value(metadata %class.StringSumHelper* %lhs, i64 0, metadata !2126, metadata !266), !dbg !2132
  tail call void @llvm.dbg.value(metadata i8 %c, i64 0, metadata !1436, metadata !266) #10, !dbg !2133
  %0 = getelementptr inbounds [2 x i8], [2 x i8]* %buf.i, i16 0, i16 0, !dbg !2134
  call void @llvm.lifetime.start(i64 2, i8* nonnull %0) #10, !dbg !2134
  store i8 %c, i8* %0, align 1, !dbg !2135, !tbaa !337
  %arrayidx2.i = getelementptr inbounds [2 x i8], [2 x i8]* %buf.i, i16 0, i16 1, !dbg !2136
  store i8 0, i8* %arrayidx2.i, align 1, !dbg !2137, !tbaa !337
  tail call void @llvm.dbg.value(metadata i8* %0, i64 0, metadata !1293, metadata !266) #10, !dbg !2138
  tail call void @llvm.dbg.value(metadata i16 1, i64 0, metadata !1294, metadata !266) #10, !dbg !2140
  %len.i.i = getelementptr inbounds %class.StringSumHelper, %class.StringSumHelper* %lhs, i16 0, i32 0, i32 2, !dbg !2141
  %1 = load i16, i16* %len.i.i, align 1, !dbg !2141, !tbaa !288
  %add.i.i = add i16 %1, 1, !dbg !2142
  tail call void @llvm.dbg.value(metadata i16 %add.i.i, i64 0, metadata !1295, metadata !266) #10, !dbg !2143
  tail call void @llvm.dbg.value(metadata i16 %add.i.i, i64 0, metadata !307, metadata !266) #10, !dbg !2144
  %buffer.i.i.i = getelementptr inbounds %class.StringSumHelper, %class.StringSumHelper* %lhs, i16 0, i32 0, i32 0, !dbg !2146
  %2 = load i8*, i8** %buffer.i.i.i, align 1, !dbg !2146, !tbaa !277
  %tobool.i.i.i = icmp eq i8* %2, null, !dbg !2146
  br i1 %tobool.i.i.i, label %if.end.i.i.i, label %land.lhs.true.i.i.i, !dbg !2147

land.lhs.true.i.i.i:                              ; preds = %entry
  %capacity.i.i.i = getelementptr inbounds %class.StringSumHelper, %class.StringSumHelper* %lhs, i16 0, i32 0, i32 1, !dbg !2148
  %3 = load i16, i16* %capacity.i.i.i, align 1, !dbg !2148, !tbaa !285
  %cmp.i.i.i = icmp ult i16 %3, %add.i.i, !dbg !2149
  br i1 %cmp.i.i.i, label %if.end.i.i.i, label %_ZN6String6concatEc.exit, !dbg !2150

if.end.i.i.i:                                     ; preds = %land.lhs.true.i.i.i, %entry
  tail call void @llvm.dbg.value(metadata i16 %add.i.i, i64 0, metadata !315, metadata !266) #10, !dbg !2151
  %add.i.i.i.i = add i16 %1, 2, !dbg !2153
  %call.i.i.i.i = tail call noalias i8* @realloc(i8* %2, i16 %add.i.i.i.i) #10, !dbg !2154
  tail call void @llvm.dbg.value(metadata i8* %call.i.i.i.i, i64 0, metadata !316, metadata !266) #10, !dbg !2155
  %tobool.i.i.i.i = icmp eq i8* %call.i.i.i.i, null, !dbg !2156
  br i1 %tobool.i.i.i.i, label %if.then, label %if.then3.i.i.i, !dbg !2157

if.then3.i.i.i:                                   ; preds = %if.end.i.i.i
  store i8* %call.i.i.i.i, i8** %buffer.i.i.i, align 1, !dbg !2158, !tbaa !277
  %capacity.i.i.i.i = getelementptr inbounds %class.StringSumHelper, %class.StringSumHelper* %lhs, i16 0, i32 0, i32 1, !dbg !2159
  store i16 %add.i.i, i16* %capacity.i.i.i.i, align 1, !dbg !2160, !tbaa !285
  %4 = load i16, i16* %len.i.i, align 1, !dbg !2161, !tbaa !288
  %cmp4.i.i.i = icmp eq i16 %4, 0, !dbg !2162
  br i1 %cmp4.i.i.i, label %if.then5.i.i.i, label %_ZN6String6concatEc.exit, !dbg !2163

if.then5.i.i.i:                                   ; preds = %if.then3.i.i.i
  store i8 0, i8* %call.i.i.i.i, align 1, !dbg !2164, !tbaa !337
  br label %_ZN6String6concatEc.exit, !dbg !2165

_ZN6String6concatEc.exit:                         ; preds = %land.lhs.true.i.i.i, %if.then3.i.i.i, %if.then5.i.i.i
  %5 = phi i16 [ %1, %land.lhs.true.i.i.i ], [ 0, %if.then5.i.i.i ], [ %4, %if.then3.i.i.i ], !dbg !2166
  %6 = phi i8* [ %2, %land.lhs.true.i.i.i ], [ %call.i.i.i.i, %if.then5.i.i.i ], [ %call.i.i.i.i, %if.then3.i.i.i ], !dbg !2167
  %add.ptr.i.i = getelementptr inbounds i8, i8* %6, i16 %5, !dbg !2168
  %call8.i.i = call i8* @strcpy(i8* %add.ptr.i.i, i8* nonnull %0) #10, !dbg !2169
  store i16 %add.i.i, i16* %len.i.i, align 1, !dbg !2170, !tbaa !288
  call void @llvm.lifetime.end(i64 2, i8* nonnull %0) #10, !dbg !2171
  br label %if.end, !dbg !2172

if.then:                                          ; preds = %if.end.i.i.i
  call void @llvm.lifetime.end(i64 2, i8* nonnull %0) #10, !dbg !2171
  %7 = load i8*, i8** %buffer.i.i.i, align 1, !dbg !2173, !tbaa !277
  %tobool.i = icmp eq i8* %7, null, !dbg !2173
  br i1 %tobool.i, label %_ZN6String10invalidateEv.exit, label %if.then.i, !dbg !2176

if.then.i:                                        ; preds = %if.then
  tail call void @free(i8* nonnull %7) #10, !dbg !2177
  br label %_ZN6String10invalidateEv.exit, !dbg !2177

_ZN6String10invalidateEv.exit:                    ; preds = %if.then, %if.then.i
  store i8* null, i8** %buffer.i.i.i, align 1, !dbg !2178, !tbaa !277
  store i16 0, i16* %len.i.i, align 1, !dbg !2179, !tbaa !288
  %capacity.i = getelementptr inbounds %class.StringSumHelper, %class.StringSumHelper* %lhs, i16 0, i32 0, i32 1, !dbg !2180
  store i16 0, i16* %capacity.i, align 1, !dbg !2181, !tbaa !285
  br label %if.end, !dbg !2182

if.end:                                           ; preds = %_ZN6String6concatEc.exit, %_ZN6String10invalidateEv.exit
  ret %class.StringSumHelper* %lhs, !dbg !2183
}

define nonnull dereferenceable(6) %class.StringSumHelper* @_ZplRK15StringSumHelperh(%class.StringSumHelper* returned dereferenceable(6) %lhs, i8 zeroext %num) local_unnamed_addr #3 !dbg !2184 {
entry:
  tail call void @llvm.dbg.value(metadata %class.StringSumHelper* %lhs, i64 0, metadata !2188, metadata !266), !dbg !2191
  tail call void @llvm.dbg.value(metadata i8 %num, i64 0, metadata !2189, metadata !266), !dbg !2192
  tail call void @llvm.dbg.value(metadata %class.StringSumHelper* %lhs, i64 0, metadata !2190, metadata !266), !dbg !2193
  %0 = getelementptr inbounds %class.StringSumHelper, %class.StringSumHelper* %lhs, i16 0, i32 0, !dbg !2194
  %call = tail call zeroext i8 @_ZN6String6concatEh(%class.String* nonnull %0, i8 zeroext %num), !dbg !2196
  %tobool = icmp eq i8 %call, 0, !dbg !2194
  br i1 %tobool, label %if.then, label %if.end, !dbg !2197

if.then:                                          ; preds = %entry
  tail call void @llvm.dbg.value(metadata %class.String* %0, i64 0, metadata !339, metadata !266) #10, !dbg !2198
  %buffer.i = getelementptr inbounds %class.StringSumHelper, %class.StringSumHelper* %lhs, i16 0, i32 0, i32 0, !dbg !2201
  %1 = load i8*, i8** %buffer.i, align 1, !dbg !2201, !tbaa !277
  %tobool.i = icmp eq i8* %1, null, !dbg !2201
  br i1 %tobool.i, label %_ZN6String10invalidateEv.exit, label %if.then.i, !dbg !2202

if.then.i:                                        ; preds = %if.then
  tail call void @free(i8* nonnull %1) #10, !dbg !2203
  br label %_ZN6String10invalidateEv.exit, !dbg !2203

_ZN6String10invalidateEv.exit:                    ; preds = %if.then, %if.then.i
  store i8* null, i8** %buffer.i, align 1, !dbg !2204, !tbaa !277
  %len.i = getelementptr inbounds %class.StringSumHelper, %class.StringSumHelper* %lhs, i16 0, i32 0, i32 2, !dbg !2205
  store i16 0, i16* %len.i, align 1, !dbg !2206, !tbaa !288
  %capacity.i = getelementptr inbounds %class.StringSumHelper, %class.StringSumHelper* %lhs, i16 0, i32 0, i32 1, !dbg !2207
  store i16 0, i16* %capacity.i, align 1, !dbg !2208, !tbaa !285
  br label %if.end, !dbg !2209

if.end:                                           ; preds = %entry, %_ZN6String10invalidateEv.exit
  ret %class.StringSumHelper* %lhs, !dbg !2210
}

define nonnull dereferenceable(6) %class.StringSumHelper* @_ZplRK15StringSumHelperi(%class.StringSumHelper* returned dereferenceable(6) %lhs, i16 %num) local_unnamed_addr #3 !dbg !2211 {
entry:
  tail call void @llvm.dbg.value(metadata %class.StringSumHelper* %lhs, i64 0, metadata !2215, metadata !266), !dbg !2218
  tail call void @llvm.dbg.value(metadata i16 %num, i64 0, metadata !2216, metadata !266), !dbg !2219
  tail call void @llvm.dbg.value(metadata %class.StringSumHelper* %lhs, i64 0, metadata !2217, metadata !266), !dbg !2220
  %0 = getelementptr inbounds %class.StringSumHelper, %class.StringSumHelper* %lhs, i16 0, i32 0, !dbg !2221
  %call = tail call zeroext i8 @_ZN6String6concatEi(%class.String* nonnull %0, i16 %num), !dbg !2223
  %tobool = icmp eq i8 %call, 0, !dbg !2221
  br i1 %tobool, label %if.then, label %if.end, !dbg !2224

if.then:                                          ; preds = %entry
  tail call void @llvm.dbg.value(metadata %class.String* %0, i64 0, metadata !339, metadata !266) #10, !dbg !2225
  %buffer.i = getelementptr inbounds %class.StringSumHelper, %class.StringSumHelper* %lhs, i16 0, i32 0, i32 0, !dbg !2228
  %1 = load i8*, i8** %buffer.i, align 1, !dbg !2228, !tbaa !277
  %tobool.i = icmp eq i8* %1, null, !dbg !2228
  br i1 %tobool.i, label %_ZN6String10invalidateEv.exit, label %if.then.i, !dbg !2229

if.then.i:                                        ; preds = %if.then
  tail call void @free(i8* nonnull %1) #10, !dbg !2230
  br label %_ZN6String10invalidateEv.exit, !dbg !2230

_ZN6String10invalidateEv.exit:                    ; preds = %if.then, %if.then.i
  store i8* null, i8** %buffer.i, align 1, !dbg !2231, !tbaa !277
  %len.i = getelementptr inbounds %class.StringSumHelper, %class.StringSumHelper* %lhs, i16 0, i32 0, i32 2, !dbg !2232
  store i16 0, i16* %len.i, align 1, !dbg !2233, !tbaa !288
  %capacity.i = getelementptr inbounds %class.StringSumHelper, %class.StringSumHelper* %lhs, i16 0, i32 0, i32 1, !dbg !2234
  store i16 0, i16* %capacity.i, align 1, !dbg !2235, !tbaa !285
  br label %if.end, !dbg !2236

if.end:                                           ; preds = %entry, %_ZN6String10invalidateEv.exit
  ret %class.StringSumHelper* %lhs, !dbg !2237
}

define nonnull dereferenceable(6) %class.StringSumHelper* @_ZplRK15StringSumHelperj(%class.StringSumHelper* returned dereferenceable(6) %lhs, i16 %num) local_unnamed_addr #3 !dbg !2238 {
entry:
  tail call void @llvm.dbg.value(metadata %class.StringSumHelper* %lhs, i64 0, metadata !2242, metadata !266), !dbg !2245
  tail call void @llvm.dbg.value(metadata i16 %num, i64 0, metadata !2243, metadata !266), !dbg !2246
  tail call void @llvm.dbg.value(metadata %class.StringSumHelper* %lhs, i64 0, metadata !2244, metadata !266), !dbg !2247
  %0 = getelementptr inbounds %class.StringSumHelper, %class.StringSumHelper* %lhs, i16 0, i32 0, !dbg !2248
  %call = tail call zeroext i8 @_ZN6String6concatEj(%class.String* nonnull %0, i16 %num), !dbg !2250
  %tobool = icmp eq i8 %call, 0, !dbg !2248
  br i1 %tobool, label %if.then, label %if.end, !dbg !2251

if.then:                                          ; preds = %entry
  tail call void @llvm.dbg.value(metadata %class.String* %0, i64 0, metadata !339, metadata !266) #10, !dbg !2252
  %buffer.i = getelementptr inbounds %class.StringSumHelper, %class.StringSumHelper* %lhs, i16 0, i32 0, i32 0, !dbg !2255
  %1 = load i8*, i8** %buffer.i, align 1, !dbg !2255, !tbaa !277
  %tobool.i = icmp eq i8* %1, null, !dbg !2255
  br i1 %tobool.i, label %_ZN6String10invalidateEv.exit, label %if.then.i, !dbg !2256

if.then.i:                                        ; preds = %if.then
  tail call void @free(i8* nonnull %1) #10, !dbg !2257
  br label %_ZN6String10invalidateEv.exit, !dbg !2257

_ZN6String10invalidateEv.exit:                    ; preds = %if.then, %if.then.i
  store i8* null, i8** %buffer.i, align 1, !dbg !2258, !tbaa !277
  %len.i = getelementptr inbounds %class.StringSumHelper, %class.StringSumHelper* %lhs, i16 0, i32 0, i32 2, !dbg !2259
  store i16 0, i16* %len.i, align 1, !dbg !2260, !tbaa !288
  %capacity.i = getelementptr inbounds %class.StringSumHelper, %class.StringSumHelper* %lhs, i16 0, i32 0, i32 1, !dbg !2261
  store i16 0, i16* %capacity.i, align 1, !dbg !2262, !tbaa !285
  br label %if.end, !dbg !2263

if.end:                                           ; preds = %entry, %_ZN6String10invalidateEv.exit
  ret %class.StringSumHelper* %lhs, !dbg !2264
}

define nonnull dereferenceable(6) %class.StringSumHelper* @_ZplRK15StringSumHelperl(%class.StringSumHelper* returned dereferenceable(6) %lhs, i32 %num) local_unnamed_addr #3 !dbg !2265 {
entry:
  tail call void @llvm.dbg.value(metadata %class.StringSumHelper* %lhs, i64 0, metadata !2269, metadata !266), !dbg !2272
  tail call void @llvm.dbg.value(metadata i32 %num, i64 0, metadata !2270, metadata !266), !dbg !2273
  tail call void @llvm.dbg.value(metadata %class.StringSumHelper* %lhs, i64 0, metadata !2271, metadata !266), !dbg !2274
  %0 = getelementptr inbounds %class.StringSumHelper, %class.StringSumHelper* %lhs, i16 0, i32 0, !dbg !2275
  %call = tail call zeroext i8 @_ZN6String6concatEl(%class.String* nonnull %0, i32 %num), !dbg !2277
  %tobool = icmp eq i8 %call, 0, !dbg !2275
  br i1 %tobool, label %if.then, label %if.end, !dbg !2278

if.then:                                          ; preds = %entry
  tail call void @llvm.dbg.value(metadata %class.String* %0, i64 0, metadata !339, metadata !266) #10, !dbg !2279
  %buffer.i = getelementptr inbounds %class.StringSumHelper, %class.StringSumHelper* %lhs, i16 0, i32 0, i32 0, !dbg !2282
  %1 = load i8*, i8** %buffer.i, align 1, !dbg !2282, !tbaa !277
  %tobool.i = icmp eq i8* %1, null, !dbg !2282
  br i1 %tobool.i, label %_ZN6String10invalidateEv.exit, label %if.then.i, !dbg !2283

if.then.i:                                        ; preds = %if.then
  tail call void @free(i8* nonnull %1) #10, !dbg !2284
  br label %_ZN6String10invalidateEv.exit, !dbg !2284

_ZN6String10invalidateEv.exit:                    ; preds = %if.then, %if.then.i
  store i8* null, i8** %buffer.i, align 1, !dbg !2285, !tbaa !277
  %len.i = getelementptr inbounds %class.StringSumHelper, %class.StringSumHelper* %lhs, i16 0, i32 0, i32 2, !dbg !2286
  store i16 0, i16* %len.i, align 1, !dbg !2287, !tbaa !288
  %capacity.i = getelementptr inbounds %class.StringSumHelper, %class.StringSumHelper* %lhs, i16 0, i32 0, i32 1, !dbg !2288
  store i16 0, i16* %capacity.i, align 1, !dbg !2289, !tbaa !285
  br label %if.end, !dbg !2290

if.end:                                           ; preds = %entry, %_ZN6String10invalidateEv.exit
  ret %class.StringSumHelper* %lhs, !dbg !2291
}

define nonnull dereferenceable(6) %class.StringSumHelper* @_ZplRK15StringSumHelperm(%class.StringSumHelper* returned dereferenceable(6) %lhs, i32 %num) local_unnamed_addr #3 !dbg !2292 {
entry:
  tail call void @llvm.dbg.value(metadata %class.StringSumHelper* %lhs, i64 0, metadata !2296, metadata !266), !dbg !2299
  tail call void @llvm.dbg.value(metadata i32 %num, i64 0, metadata !2297, metadata !266), !dbg !2300
  tail call void @llvm.dbg.value(metadata %class.StringSumHelper* %lhs, i64 0, metadata !2298, metadata !266), !dbg !2301
  %0 = getelementptr inbounds %class.StringSumHelper, %class.StringSumHelper* %lhs, i16 0, i32 0, !dbg !2302
  %call = tail call zeroext i8 @_ZN6String6concatEm(%class.String* nonnull %0, i32 %num), !dbg !2304
  %tobool = icmp eq i8 %call, 0, !dbg !2302
  br i1 %tobool, label %if.then, label %if.end, !dbg !2305

if.then:                                          ; preds = %entry
  tail call void @llvm.dbg.value(metadata %class.String* %0, i64 0, metadata !339, metadata !266) #10, !dbg !2306
  %buffer.i = getelementptr inbounds %class.StringSumHelper, %class.StringSumHelper* %lhs, i16 0, i32 0, i32 0, !dbg !2309
  %1 = load i8*, i8** %buffer.i, align 1, !dbg !2309, !tbaa !277
  %tobool.i = icmp eq i8* %1, null, !dbg !2309
  br i1 %tobool.i, label %_ZN6String10invalidateEv.exit, label %if.then.i, !dbg !2310

if.then.i:                                        ; preds = %if.then
  tail call void @free(i8* nonnull %1) #10, !dbg !2311
  br label %_ZN6String10invalidateEv.exit, !dbg !2311

_ZN6String10invalidateEv.exit:                    ; preds = %if.then, %if.then.i
  store i8* null, i8** %buffer.i, align 1, !dbg !2312, !tbaa !277
  %len.i = getelementptr inbounds %class.StringSumHelper, %class.StringSumHelper* %lhs, i16 0, i32 0, i32 2, !dbg !2313
  store i16 0, i16* %len.i, align 1, !dbg !2314, !tbaa !288
  %capacity.i = getelementptr inbounds %class.StringSumHelper, %class.StringSumHelper* %lhs, i16 0, i32 0, i32 1, !dbg !2315
  store i16 0, i16* %capacity.i, align 1, !dbg !2316, !tbaa !285
  br label %if.end, !dbg !2317

if.end:                                           ; preds = %entry, %_ZN6String10invalidateEv.exit
  ret %class.StringSumHelper* %lhs, !dbg !2318
}

define nonnull dereferenceable(6) %class.StringSumHelper* @_ZplRK15StringSumHelperf(%class.StringSumHelper* returned dereferenceable(6) %lhs, float %num) local_unnamed_addr #3 !dbg !2319 {
entry:
  tail call void @llvm.dbg.value(metadata %class.StringSumHelper* %lhs, i64 0, metadata !2323, metadata !266), !dbg !2326
  tail call void @llvm.dbg.value(metadata float %num, i64 0, metadata !2324, metadata !266), !dbg !2327
  tail call void @llvm.dbg.value(metadata %class.StringSumHelper* %lhs, i64 0, metadata !2325, metadata !266), !dbg !2328
  %0 = getelementptr inbounds %class.StringSumHelper, %class.StringSumHelper* %lhs, i16 0, i32 0, !dbg !2329
  %call = tail call zeroext i8 @_ZN6String6concatEf(%class.String* nonnull %0, float %num), !dbg !2331
  %tobool = icmp eq i8 %call, 0, !dbg !2329
  br i1 %tobool, label %if.then, label %if.end, !dbg !2332

if.then:                                          ; preds = %entry
  tail call void @llvm.dbg.value(metadata %class.String* %0, i64 0, metadata !339, metadata !266) #10, !dbg !2333
  %buffer.i = getelementptr inbounds %class.StringSumHelper, %class.StringSumHelper* %lhs, i16 0, i32 0, i32 0, !dbg !2336
  %1 = load i8*, i8** %buffer.i, align 1, !dbg !2336, !tbaa !277
  %tobool.i = icmp eq i8* %1, null, !dbg !2336
  br i1 %tobool.i, label %_ZN6String10invalidateEv.exit, label %if.then.i, !dbg !2337

if.then.i:                                        ; preds = %if.then
  tail call void @free(i8* nonnull %1) #10, !dbg !2338
  br label %_ZN6String10invalidateEv.exit, !dbg !2338

_ZN6String10invalidateEv.exit:                    ; preds = %if.then, %if.then.i
  store i8* null, i8** %buffer.i, align 1, !dbg !2339, !tbaa !277
  %len.i = getelementptr inbounds %class.StringSumHelper, %class.StringSumHelper* %lhs, i16 0, i32 0, i32 2, !dbg !2340
  store i16 0, i16* %len.i, align 1, !dbg !2341, !tbaa !288
  %capacity.i = getelementptr inbounds %class.StringSumHelper, %class.StringSumHelper* %lhs, i16 0, i32 0, i32 1, !dbg !2342
  store i16 0, i16* %capacity.i, align 1, !dbg !2343, !tbaa !285
  br label %if.end, !dbg !2344

if.end:                                           ; preds = %entry, %_ZN6String10invalidateEv.exit
  ret %class.StringSumHelper* %lhs, !dbg !2345
}

define nonnull dereferenceable(6) %class.StringSumHelper* @_ZplRK15StringSumHelperd(%class.StringSumHelper* returned dereferenceable(6) %lhs, float %num) local_unnamed_addr #3 !dbg !2346 {
entry:
  tail call void @llvm.dbg.value(metadata %class.StringSumHelper* %lhs, i64 0, metadata !2350, metadata !266), !dbg !2353
  tail call void @llvm.dbg.value(metadata float %num, i64 0, metadata !2351, metadata !266), !dbg !2354
  tail call void @llvm.dbg.value(metadata %class.StringSumHelper* %lhs, i64 0, metadata !2352, metadata !266), !dbg !2355
  %0 = getelementptr inbounds %class.StringSumHelper, %class.StringSumHelper* %lhs, i16 0, i32 0, !dbg !2356
  %call = tail call zeroext i8 @_ZN6String6concatEd(%class.String* nonnull %0, float %num), !dbg !2358
  %tobool = icmp eq i8 %call, 0, !dbg !2356
  br i1 %tobool, label %if.then, label %if.end, !dbg !2359

if.then:                                          ; preds = %entry
  tail call void @llvm.dbg.value(metadata %class.String* %0, i64 0, metadata !339, metadata !266) #10, !dbg !2360
  %buffer.i = getelementptr inbounds %class.StringSumHelper, %class.StringSumHelper* %lhs, i16 0, i32 0, i32 0, !dbg !2363
  %1 = load i8*, i8** %buffer.i, align 1, !dbg !2363, !tbaa !277
  %tobool.i = icmp eq i8* %1, null, !dbg !2363
  br i1 %tobool.i, label %_ZN6String10invalidateEv.exit, label %if.then.i, !dbg !2364

if.then.i:                                        ; preds = %if.then
  tail call void @free(i8* nonnull %1) #10, !dbg !2365
  br label %_ZN6String10invalidateEv.exit, !dbg !2365

_ZN6String10invalidateEv.exit:                    ; preds = %if.then, %if.then.i
  store i8* null, i8** %buffer.i, align 1, !dbg !2366, !tbaa !277
  %len.i = getelementptr inbounds %class.StringSumHelper, %class.StringSumHelper* %lhs, i16 0, i32 0, i32 2, !dbg !2367
  store i16 0, i16* %len.i, align 1, !dbg !2368, !tbaa !288
  %capacity.i = getelementptr inbounds %class.StringSumHelper, %class.StringSumHelper* %lhs, i16 0, i32 0, i32 1, !dbg !2369
  store i16 0, i16* %capacity.i, align 1, !dbg !2370, !tbaa !285
  br label %if.end, !dbg !2371

if.end:                                           ; preds = %entry, %_ZN6String10invalidateEv.exit
  ret %class.StringSumHelper* %lhs, !dbg !2372
}

define nonnull dereferenceable(6) %class.StringSumHelper* @_ZplRK15StringSumHelperPK19__FlashStringHelper(%class.StringSumHelper* returned dereferenceable(6) %lhs, %class.__FlashStringHelper* %rhs) local_unnamed_addr #3 !dbg !2373 {
entry:
  tail call void @llvm.dbg.value(metadata %class.StringSumHelper* %lhs, i64 0, metadata !2377, metadata !266), !dbg !2380
  tail call void @llvm.dbg.value(metadata %class.__FlashStringHelper* %rhs, i64 0, metadata !2378, metadata !266), !dbg !2381
  tail call void @llvm.dbg.value(metadata %class.StringSumHelper* %lhs, i64 0, metadata !2379, metadata !266), !dbg !2382
  tail call void @llvm.dbg.value(metadata %class.__FlashStringHelper* %rhs, i64 0, metadata !1905, metadata !266), !dbg !2383
  %tobool.i = icmp eq %class.__FlashStringHelper* %rhs, null, !dbg !2386
  br i1 %tobool.i, label %entry.if.then_crit_edge, label %if.end.i, !dbg !2387

entry.if.then_crit_edge:                          ; preds = %entry
  %.pre = getelementptr inbounds %class.StringSumHelper, %class.StringSumHelper* %lhs, i16 0, i32 0, i32 0, !dbg !2388
  br label %if.then, !dbg !2387

if.end.i:                                         ; preds = %entry
  %0 = bitcast %class.__FlashStringHelper* %rhs to i8*, !dbg !2391
  tail call void @llvm.dbg.value(metadata i8* %0, i64 0, metadata !520, metadata !266) #10, !dbg !2392
  %call.i.i = tail call i16 @__strlen_P(i8* %0) #1, !dbg !2394
  tail call void @llvm.dbg.value(metadata i16 %call.i.i, i64 0, metadata !1906, metadata !266), !dbg !2395
  %cmp.i = icmp eq i16 %call.i.i, 0, !dbg !2396
  br i1 %cmp.i, label %if.end, label %if.end3.i, !dbg !2397

if.end3.i:                                        ; preds = %if.end.i
  %len.i = getelementptr inbounds %class.StringSumHelper, %class.StringSumHelper* %lhs, i16 0, i32 0, i32 2, !dbg !2398
  %1 = load i16, i16* %len.i, align 1, !dbg !2398, !tbaa !288
  %add.i = add i16 %1, %call.i.i, !dbg !2399
  tail call void @llvm.dbg.value(metadata i16 %add.i, i64 0, metadata !1907, metadata !266), !dbg !2400
  tail call void @llvm.dbg.value(metadata i16 %add.i, i64 0, metadata !307, metadata !266) #10, !dbg !2401
  %buffer.i.i = getelementptr inbounds %class.StringSumHelper, %class.StringSumHelper* %lhs, i16 0, i32 0, i32 0, !dbg !2403
  %2 = load i8*, i8** %buffer.i.i, align 1, !dbg !2403, !tbaa !277
  %tobool.i.i = icmp eq i8* %2, null, !dbg !2403
  br i1 %tobool.i.i, label %if.end.i.i, label %land.lhs.true.i.i, !dbg !2404

land.lhs.true.i.i:                                ; preds = %if.end3.i
  %capacity.i.i = getelementptr inbounds %class.StringSumHelper, %class.StringSumHelper* %lhs, i16 0, i32 0, i32 1, !dbg !2405
  %3 = load i16, i16* %capacity.i.i, align 1, !dbg !2405, !tbaa !285
  %cmp.i.i = icmp ult i16 %3, %add.i, !dbg !2406
  br i1 %cmp.i.i, label %if.end.i.i, label %if.end7.i, !dbg !2407

if.end.i.i:                                       ; preds = %land.lhs.true.i.i, %if.end3.i
  tail call void @llvm.dbg.value(metadata i16 %add.i, i64 0, metadata !315, metadata !266) #10, !dbg !2408
  %add.i.i.i = add i16 %add.i, 1, !dbg !2410
  %call.i.i.i = tail call noalias i8* @realloc(i8* %2, i16 %add.i.i.i) #10, !dbg !2411
  tail call void @llvm.dbg.value(metadata i8* %call.i.i.i, i64 0, metadata !316, metadata !266) #10, !dbg !2412
  %tobool.i.i.i = icmp eq i8* %call.i.i.i, null, !dbg !2413
  br i1 %tobool.i.i.i, label %if.then, label %if.then3.i.i, !dbg !2414

if.then3.i.i:                                     ; preds = %if.end.i.i
  store i8* %call.i.i.i, i8** %buffer.i.i, align 1, !dbg !2415, !tbaa !277
  %capacity.i.i.i = getelementptr inbounds %class.StringSumHelper, %class.StringSumHelper* %lhs, i16 0, i32 0, i32 1, !dbg !2416
  store i16 %add.i, i16* %capacity.i.i.i, align 1, !dbg !2417, !tbaa !285
  %4 = load i16, i16* %len.i, align 1, !dbg !2418, !tbaa !288
  %cmp4.i.i = icmp eq i16 %4, 0, !dbg !2419
  br i1 %cmp4.i.i, label %if.then5.i.i, label %if.end7.i, !dbg !2420

if.then5.i.i:                                     ; preds = %if.then3.i.i
  store i8 0, i8* %call.i.i.i, align 1, !dbg !2421, !tbaa !337
  br label %if.end7.i, !dbg !2422

if.end7.i:                                        ; preds = %if.then5.i.i, %if.then3.i.i, %land.lhs.true.i.i
  %5 = phi i16 [ %1, %land.lhs.true.i.i ], [ 0, %if.then5.i.i ], [ %4, %if.then3.i.i ], !dbg !2423
  %6 = phi i8* [ %2, %land.lhs.true.i.i ], [ %call.i.i.i, %if.then5.i.i ], [ %call.i.i.i, %if.then3.i.i ], !dbg !2424
  %add.ptr.i = getelementptr inbounds i8, i8* %6, i16 %5, !dbg !2425
  %call9.i = tail call i8* @strcpy_P(i8* %add.ptr.i, i8* %0), !dbg !2426
  store i16 %add.i, i16* %len.i, align 1, !dbg !2427, !tbaa !288
  br label %if.end, !dbg !2428

if.then:                                          ; preds = %entry.if.then_crit_edge, %if.end.i.i
  %buffer.i.pre-phi = phi i8** [ %.pre, %entry.if.then_crit_edge ], [ %buffer.i.i, %if.end.i.i ], !dbg !2388
  %7 = load i8*, i8** %buffer.i.pre-phi, align 1, !dbg !2388, !tbaa !277
  %tobool.i4 = icmp eq i8* %7, null, !dbg !2388
  br i1 %tobool.i4, label %_ZN6String10invalidateEv.exit, label %if.then.i, !dbg !2429

if.then.i:                                        ; preds = %if.then
  tail call void @free(i8* nonnull %7) #10, !dbg !2430
  br label %_ZN6String10invalidateEv.exit, !dbg !2430

_ZN6String10invalidateEv.exit:                    ; preds = %if.then, %if.then.i
  store i8* null, i8** %buffer.i.pre-phi, align 1, !dbg !2431, !tbaa !277
  %len.i5 = getelementptr inbounds %class.StringSumHelper, %class.StringSumHelper* %lhs, i16 0, i32 0, i32 2, !dbg !2432
  store i16 0, i16* %len.i5, align 1, !dbg !2433, !tbaa !288
  %capacity.i = getelementptr inbounds %class.StringSumHelper, %class.StringSumHelper* %lhs, i16 0, i32 0, i32 1, !dbg !2434
  store i16 0, i16* %capacity.i, align 1, !dbg !2435, !tbaa !285
  br label %if.end, !dbg !2436

if.end:                                           ; preds = %if.end7.i, %if.end.i, %_ZN6String10invalidateEv.exit
  ret %class.StringSumHelper* %lhs, !dbg !2437
}

; Function Attrs: nounwind readonly
define i16 @_ZNK6String9compareToERKS_(%class.String* nocapture readonly %this, %class.String* nocapture readonly dereferenceable(6) %s) local_unnamed_addr #7 align 2 !dbg !2438 {
entry:
  tail call void @llvm.dbg.value(metadata %class.String* %this, i64 0, metadata !2440, metadata !266), !dbg !2443
  tail call void @llvm.dbg.value(metadata %class.String* %s, i64 0, metadata !2442, metadata !266), !dbg !2444
  %buffer = getelementptr inbounds %class.String, %class.String* %this, i16 0, i32 0, !dbg !2445
  %0 = load i8*, i8** %buffer, align 1, !dbg !2445, !tbaa !277
  %tobool = icmp ne i8* %0, null, !dbg !2445
  %1 = getelementptr inbounds %class.String, %class.String* %s, i16 0, i32 0, !dbg !2447
  %2 = load i8*, i8** %1, align 1, !dbg !2447, !tbaa !277
  %tobool3 = icmp ne i8* %2, null, !dbg !2449
  %brmerge.demorgan = and i1 %tobool, %tobool3, !dbg !2450
  br i1 %brmerge.demorgan, label %if.end17, label %if.then, !dbg !2450

if.then:                                          ; preds = %entry
  br i1 %tobool3, label %land.lhs.true, label %if.end, !dbg !2451

land.lhs.true:                                    ; preds = %if.then
  %len = getelementptr inbounds %class.String, %class.String* %s, i16 0, i32 2, !dbg !2454
  %3 = load i16, i16* %len, align 1, !dbg !2454, !tbaa !288
  %cmp = icmp eq i16 %3, 0, !dbg !2456
  br i1 %cmp, label %if.end, label %if.then6, !dbg !2457

if.then6:                                         ; preds = %land.lhs.true
  %4 = load i8, i8* %2, align 1, !dbg !2459, !tbaa !337
  %conv = zext i8 %4 to i16, !dbg !2459
  %sub = sub nsw i16 0, %conv, !dbg !2461
  br label %return, !dbg !2462

if.end:                                           ; preds = %land.lhs.true, %if.then
  br i1 %tobool, label %land.lhs.true10, label %return, !dbg !2463

land.lhs.true10:                                  ; preds = %if.end
  %len11 = getelementptr inbounds %class.String, %class.String* %this, i16 0, i32 2, !dbg !2465
  %5 = load i16, i16* %len11, align 1, !dbg !2465, !tbaa !288
  %cmp12 = icmp eq i16 %5, 0, !dbg !2467
  br i1 %cmp12, label %return, label %if.then13, !dbg !2468

if.then13:                                        ; preds = %land.lhs.true10
  %6 = load i8, i8* %0, align 1, !dbg !2469, !tbaa !337
  %conv15 = zext i8 %6 to i16, !dbg !2469
  br label %return, !dbg !2471

if.end17:                                         ; preds = %entry
  %call = tail call i16 @strcmp(i8* nonnull %0, i8* nonnull %2) #9, !dbg !2472
  br label %return, !dbg !2473

return:                                           ; preds = %if.end, %land.lhs.true10, %if.end17, %if.then13, %if.then6
  %retval.0 = phi i16 [ %call, %if.end17 ], [ %sub, %if.then6 ], [ %conv15, %if.then13 ], [ 0, %land.lhs.true10 ], [ 0, %if.end ]
  ret i16 %retval.0, !dbg !2474
}

; Function Attrs: nounwind readonly
declare i16 @strcmp(i8*, i8*) local_unnamed_addr #2

; Function Attrs: nounwind readonly
define zeroext i8 @_ZNK6String6equalsERKS_(%class.String* nocapture readonly %this, %class.String* nocapture readonly dereferenceable(6) %s2) local_unnamed_addr #7 align 2 !dbg !2475 {
entry:
  tail call void @llvm.dbg.value(metadata %class.String* %this, i64 0, metadata !2477, metadata !266), !dbg !2479
  tail call void @llvm.dbg.value(metadata %class.String* %s2, i64 0, metadata !2478, metadata !266), !dbg !2480
  %len = getelementptr inbounds %class.String, %class.String* %this, i16 0, i32 2, !dbg !2481
  %0 = load i16, i16* %len, align 1, !dbg !2481, !tbaa !288
  %len2 = getelementptr inbounds %class.String, %class.String* %s2, i16 0, i32 2, !dbg !2482
  %1 = load i16, i16* %len2, align 1, !dbg !2482, !tbaa !288
  %cmp = icmp eq i16 %0, %1, !dbg !2483
  br i1 %cmp, label %land.rhs, label %land.end, !dbg !2484

land.rhs:                                         ; preds = %entry
  tail call void @llvm.dbg.value(metadata %class.String* %this, i64 0, metadata !2440, metadata !266) #10, !dbg !2485
  tail call void @llvm.dbg.value(metadata %class.String* %s2, i64 0, metadata !2442, metadata !266) #10, !dbg !2488
  %buffer.i = getelementptr inbounds %class.String, %class.String* %this, i16 0, i32 0, !dbg !2489
  %2 = load i8*, i8** %buffer.i, align 1, !dbg !2489, !tbaa !277
  %tobool.i = icmp ne i8* %2, null, !dbg !2489
  %3 = getelementptr inbounds %class.String, %class.String* %s2, i16 0, i32 0, !dbg !2490
  %4 = load i8*, i8** %3, align 1, !dbg !2490, !tbaa !277
  %tobool3.i = icmp ne i8* %4, null, !dbg !2491
  %brmerge.demorgan.i = and i1 %tobool.i, %tobool3.i, !dbg !2492
  br i1 %brmerge.demorgan.i, label %if.end17.i, label %if.then.i, !dbg !2492

if.then.i:                                        ; preds = %land.rhs
  %tobool3.i.not = xor i1 %tobool3.i, true, !dbg !2493
  %cmp.i = icmp eq i16 %0, 0, !dbg !2494
  %or.cond = or i1 %cmp.i, %tobool3.i.not, !dbg !2493
  br i1 %or.cond, label %if.end.i, label %if.then6.i, !dbg !2493

if.then6.i:                                       ; preds = %if.then.i
  %5 = load i8, i8* %4, align 1, !dbg !2495, !tbaa !337
  %conv.i = zext i8 %5 to i16, !dbg !2495
  %sub.i = sub nsw i16 0, %conv.i, !dbg !2496
  br label %_ZNK6String9compareToERKS_.exit, !dbg !2497

if.end.i:                                         ; preds = %if.then.i
  %tobool.i.not = xor i1 %tobool.i, true, !dbg !2498
  %brmerge = or i1 %cmp.i, %tobool.i.not, !dbg !2498
  br i1 %brmerge, label %_ZNK6String9compareToERKS_.exit, label %if.then13.i, !dbg !2498

if.then13.i:                                      ; preds = %if.end.i
  %6 = load i8, i8* %2, align 1, !dbg !2499, !tbaa !337
  %conv15.i = zext i8 %6 to i16, !dbg !2499
  br label %_ZNK6String9compareToERKS_.exit, !dbg !2500

if.end17.i:                                       ; preds = %land.rhs
  %call.i = tail call i16 @strcmp(i8* nonnull %2, i8* nonnull %4) #9, !dbg !2501
  br label %_ZNK6String9compareToERKS_.exit, !dbg !2502

_ZNK6String9compareToERKS_.exit:                  ; preds = %if.end.i, %if.then6.i, %if.then13.i, %if.end17.i
  %retval.0.i = phi i16 [ %call.i, %if.end17.i ], [ %sub.i, %if.then6.i ], [ %conv15.i, %if.then13.i ], [ 0, %if.end.i ]
  %cmp3 = icmp eq i16 %retval.0.i, 0, !dbg !2503
  br label %land.end

land.end:                                         ; preds = %_ZNK6String9compareToERKS_.exit, %entry
  %7 = phi i1 [ false, %entry ], [ %cmp3, %_ZNK6String9compareToERKS_.exit ]
  %conv = zext i1 %7 to i8, !dbg !2504
  ret i8 %conv, !dbg !2506
}

; Function Attrs: nounwind readonly
define zeroext i8 @_ZNK6String6equalsEPKc(%class.String* nocapture readonly %this, i8* readonly %cstr) local_unnamed_addr #7 align 2 !dbg !2507 {
entry:
  tail call void @llvm.dbg.value(metadata %class.String* %this, i64 0, metadata !2509, metadata !266), !dbg !2511
  tail call void @llvm.dbg.value(metadata i8* %cstr, i64 0, metadata !2510, metadata !266), !dbg !2512
  %len = getelementptr inbounds %class.String, %class.String* %this, i16 0, i32 2, !dbg !2513
  %0 = load i16, i16* %len, align 1, !dbg !2513, !tbaa !288
  %cmp = icmp eq i16 %0, 0, !dbg !2515
  %cmp2 = icmp eq i8* %cstr, null
  br i1 %cmp, label %if.then, label %if.end, !dbg !2516

if.then:                                          ; preds = %entry
  br i1 %cmp2, label %return, label %lor.rhs, !dbg !2517

lor.rhs:                                          ; preds = %if.then
  %1 = load i8, i8* %cstr, align 1, !dbg !2519, !tbaa !337
  %cmp3 = icmp eq i8 %1, 0, !dbg !2521
  br label %return, !dbg !2522

if.end:                                           ; preds = %entry
  %buffer = getelementptr inbounds %class.String, %class.String* %this, i16 0, i32 0
  %2 = load i8*, i8** %buffer, align 1, !tbaa !277
  br i1 %cmp2, label %if.then6, label %if.end10, !dbg !2523

if.then6:                                         ; preds = %if.end
  %3 = load i8, i8* %2, align 1, !dbg !2524, !tbaa !337
  %cmp8 = icmp eq i8 %3, 0, !dbg !2527
  br label %return, !dbg !2528

if.end10:                                         ; preds = %if.end
  %call = tail call i16 @strcmp(i8* %2, i8* nonnull %cstr) #9, !dbg !2529
  %cmp12 = icmp eq i16 %call, 0, !dbg !2530
  br label %return, !dbg !2531

return:                                           ; preds = %if.then, %lor.rhs, %if.end10, %if.then6
  %cmp12.sink = phi i1 [ %cmp12, %if.end10 ], [ %cmp8, %if.then6 ], [ true, %if.then ], [ %cmp3, %lor.rhs ]
  %conv13 = zext i1 %cmp12.sink to i8, !dbg !2529
  ret i8 %conv13, !dbg !2532
}

; Function Attrs: nounwind readonly
define zeroext i8 @_ZNK6StringltERKS_(%class.String* nocapture readonly %this, %class.String* nocapture readonly dereferenceable(6) %rhs) local_unnamed_addr #7 align 2 !dbg !2533 {
entry:
  tail call void @llvm.dbg.value(metadata %class.String* %this, i64 0, metadata !2535, metadata !266), !dbg !2537
  tail call void @llvm.dbg.value(metadata %class.String* %rhs, i64 0, metadata !2536, metadata !266), !dbg !2538
  tail call void @llvm.dbg.value(metadata %class.String* %this, i64 0, metadata !2440, metadata !266) #10, !dbg !2539
  tail call void @llvm.dbg.value(metadata %class.String* %rhs, i64 0, metadata !2442, metadata !266) #10, !dbg !2541
  %buffer.i = getelementptr inbounds %class.String, %class.String* %this, i16 0, i32 0, !dbg !2542
  %0 = load i8*, i8** %buffer.i, align 1, !dbg !2542, !tbaa !277
  %tobool.i = icmp ne i8* %0, null, !dbg !2542
  %1 = getelementptr inbounds %class.String, %class.String* %rhs, i16 0, i32 0, !dbg !2543
  %2 = load i8*, i8** %1, align 1, !dbg !2543, !tbaa !277
  %tobool3.i = icmp ne i8* %2, null, !dbg !2544
  %brmerge.demorgan.i = and i1 %tobool.i, %tobool3.i, !dbg !2545
  br i1 %brmerge.demorgan.i, label %if.end17.i, label %if.then.i, !dbg !2545

if.then.i:                                        ; preds = %entry
  br i1 %tobool3.i, label %land.lhs.true.i, label %if.end.i, !dbg !2546

land.lhs.true.i:                                  ; preds = %if.then.i
  %len.i = getelementptr inbounds %class.String, %class.String* %rhs, i16 0, i32 2, !dbg !2547
  %3 = load i16, i16* %len.i, align 1, !dbg !2547, !tbaa !288
  %cmp.i = icmp eq i16 %3, 0, !dbg !2548
  br i1 %cmp.i, label %if.end.i, label %if.then6.i, !dbg !2549

if.then6.i:                                       ; preds = %land.lhs.true.i
  %4 = load i8, i8* %2, align 1, !dbg !2550, !tbaa !337
  %conv.i = zext i8 %4 to i16, !dbg !2550
  %sub.i = sub nsw i16 0, %conv.i, !dbg !2551
  %extract = lshr i16 %sub.i, 15, !dbg !2552
  %extract.t = trunc i16 %extract to i8, !dbg !2552
  br label %_ZNK6String9compareToERKS_.exit, !dbg !2552

if.end.i:                                         ; preds = %_ZNK6String9compareToERKS_.exit, %land.lhs.true.i, %if.then.i
  %merge = phi i8 [ 0, %land.lhs.true.i ], [ 0, %if.then.i ], [ %sub.i.sink.off15, %_ZNK6String9compareToERKS_.exit ]
  ret i8 %merge, !dbg !2553

if.end17.i:                                       ; preds = %entry
  %call.i = tail call i16 @strcmp(i8* nonnull %0, i8* nonnull %2) #9, !dbg !2554
  %extract12 = lshr i16 %call.i, 15, !dbg !2555
  %extract.t13 = trunc i16 %extract12 to i8, !dbg !2555
  br label %_ZNK6String9compareToERKS_.exit, !dbg !2555

_ZNK6String9compareToERKS_.exit:                  ; preds = %if.then6.i, %if.end17.i
  %sub.i.sink.off15 = phi i8 [ %extract.t, %if.then6.i ], [ %extract.t13, %if.end17.i ]
  br label %if.end.i
}

; Function Attrs: nounwind readonly
define zeroext i8 @_ZNK6StringgtERKS_(%class.String* nocapture readonly %this, %class.String* nocapture readonly dereferenceable(6) %rhs) local_unnamed_addr #7 align 2 !dbg !2556 {
entry:
  tail call void @llvm.dbg.value(metadata %class.String* %this, i64 0, metadata !2558, metadata !266), !dbg !2560
  tail call void @llvm.dbg.value(metadata %class.String* %rhs, i64 0, metadata !2559, metadata !266), !dbg !2561
  tail call void @llvm.dbg.value(metadata %class.String* %this, i64 0, metadata !2440, metadata !266) #10, !dbg !2562
  tail call void @llvm.dbg.value(metadata %class.String* %rhs, i64 0, metadata !2442, metadata !266) #10, !dbg !2564
  %buffer.i = getelementptr inbounds %class.String, %class.String* %this, i16 0, i32 0, !dbg !2565
  %0 = load i8*, i8** %buffer.i, align 1, !dbg !2565, !tbaa !277
  %tobool.i = icmp ne i8* %0, null, !dbg !2565
  %1 = getelementptr inbounds %class.String, %class.String* %rhs, i16 0, i32 0, !dbg !2566
  %2 = load i8*, i8** %1, align 1, !dbg !2566, !tbaa !277
  %tobool3.i = icmp ne i8* %2, null, !dbg !2567
  %brmerge.demorgan.i = and i1 %tobool.i, %tobool3.i, !dbg !2568
  br i1 %brmerge.demorgan.i, label %if.end17.i, label %if.then.i, !dbg !2568

if.then.i:                                        ; preds = %entry
  br i1 %tobool3.i, label %land.lhs.true.i, label %if.end.i, !dbg !2569

land.lhs.true.i:                                  ; preds = %if.then.i
  %len.i = getelementptr inbounds %class.String, %class.String* %rhs, i16 0, i32 2, !dbg !2570
  %3 = load i16, i16* %len.i, align 1, !dbg !2570, !tbaa !288
  %cmp.i = icmp eq i16 %3, 0, !dbg !2571
  br i1 %cmp.i, label %if.end.i, label %if.then6.i, !dbg !2572

if.then6.i:                                       ; preds = %land.lhs.true.i
  %4 = load i8, i8* %2, align 1, !dbg !2573, !tbaa !337
  %conv.i = zext i8 %4 to i16, !dbg !2573
  %sub.i = sub nsw i16 0, %conv.i, !dbg !2574
  br label %_ZNK6String9compareToERKS_.exit, !dbg !2575

if.end.i:                                         ; preds = %land.lhs.true.i, %if.then.i
  br i1 %tobool.i, label %land.lhs.true10.i, label %_ZNK6String9compareToERKS_.exit, !dbg !2576

land.lhs.true10.i:                                ; preds = %if.end.i
  %len11.i = getelementptr inbounds %class.String, %class.String* %this, i16 0, i32 2, !dbg !2577
  %5 = load i16, i16* %len11.i, align 1, !dbg !2577, !tbaa !288
  %cmp12.i = icmp eq i16 %5, 0, !dbg !2578
  br i1 %cmp12.i, label %_ZNK6String9compareToERKS_.exit, label %if.then13.i, !dbg !2579

if.then13.i:                                      ; preds = %land.lhs.true10.i
  %6 = load i8, i8* %0, align 1, !dbg !2580, !tbaa !337
  %conv15.i = zext i8 %6 to i16, !dbg !2580
  br label %_ZNK6String9compareToERKS_.exit, !dbg !2581

if.end17.i:                                       ; preds = %entry
  %call.i = tail call i16 @strcmp(i8* nonnull %0, i8* nonnull %2) #9, !dbg !2582
  br label %_ZNK6String9compareToERKS_.exit, !dbg !2583

_ZNK6String9compareToERKS_.exit:                  ; preds = %if.then6.i, %if.end.i, %land.lhs.true10.i, %if.then13.i, %if.end17.i
  %retval.0.i = phi i16 [ %call.i, %if.end17.i ], [ %sub.i, %if.then6.i ], [ %conv15.i, %if.then13.i ], [ 0, %land.lhs.true10.i ], [ 0, %if.end.i ]
  %cmp = icmp sgt i16 %retval.0.i, 0, !dbg !2584
  %conv = zext i1 %cmp to i8, !dbg !2585
  ret i8 %conv, !dbg !2586
}

; Function Attrs: nounwind readonly
define zeroext i8 @_ZNK6StringleERKS_(%class.String* nocapture readonly %this, %class.String* nocapture readonly dereferenceable(6) %rhs) local_unnamed_addr #7 align 2 !dbg !2587 {
entry:
  tail call void @llvm.dbg.value(metadata %class.String* %this, i64 0, metadata !2589, metadata !266), !dbg !2591
  tail call void @llvm.dbg.value(metadata %class.String* %rhs, i64 0, metadata !2590, metadata !266), !dbg !2592
  tail call void @llvm.dbg.value(metadata %class.String* %this, i64 0, metadata !2440, metadata !266) #10, !dbg !2593
  tail call void @llvm.dbg.value(metadata %class.String* %rhs, i64 0, metadata !2442, metadata !266) #10, !dbg !2595
  %buffer.i = getelementptr inbounds %class.String, %class.String* %this, i16 0, i32 0, !dbg !2596
  %0 = load i8*, i8** %buffer.i, align 1, !dbg !2596, !tbaa !277
  %tobool.i = icmp ne i8* %0, null, !dbg !2596
  %1 = getelementptr inbounds %class.String, %class.String* %rhs, i16 0, i32 0, !dbg !2597
  %2 = load i8*, i8** %1, align 1, !dbg !2597, !tbaa !277
  %tobool3.i = icmp ne i8* %2, null, !dbg !2598
  %brmerge.demorgan.i = and i1 %tobool.i, %tobool3.i, !dbg !2599
  br i1 %brmerge.demorgan.i, label %if.end17.i, label %if.then.i, !dbg !2599

if.then.i:                                        ; preds = %entry
  br i1 %tobool3.i, label %land.lhs.true.i, label %if.end.i, !dbg !2600

land.lhs.true.i:                                  ; preds = %if.then.i
  %len.i = getelementptr inbounds %class.String, %class.String* %rhs, i16 0, i32 2, !dbg !2601
  %3 = load i16, i16* %len.i, align 1, !dbg !2601, !tbaa !288
  %cmp.i = icmp eq i16 %3, 0, !dbg !2602
  br i1 %cmp.i, label %if.end.i, label %if.then6.i, !dbg !2603

if.then6.i:                                       ; preds = %land.lhs.true.i
  %4 = load i8, i8* %2, align 1, !dbg !2604, !tbaa !337
  %conv.i = zext i8 %4 to i16, !dbg !2604
  %sub.i = sub nsw i16 0, %conv.i, !dbg !2605
  br label %_ZNK6String9compareToERKS_.exit, !dbg !2606

if.end.i:                                         ; preds = %land.lhs.true.i, %if.then.i
  br i1 %tobool.i, label %land.lhs.true10.i, label %_ZNK6String9compareToERKS_.exit, !dbg !2607

land.lhs.true10.i:                                ; preds = %if.end.i
  %len11.i = getelementptr inbounds %class.String, %class.String* %this, i16 0, i32 2, !dbg !2608
  %5 = load i16, i16* %len11.i, align 1, !dbg !2608, !tbaa !288
  %cmp12.i = icmp eq i16 %5, 0, !dbg !2609
  br i1 %cmp12.i, label %_ZNK6String9compareToERKS_.exit, label %if.then13.i, !dbg !2610

if.then13.i:                                      ; preds = %land.lhs.true10.i
  %6 = load i8, i8* %0, align 1, !dbg !2611, !tbaa !337
  %conv15.i = zext i8 %6 to i16, !dbg !2611
  br label %_ZNK6String9compareToERKS_.exit, !dbg !2612

if.end17.i:                                       ; preds = %entry
  %call.i = tail call i16 @strcmp(i8* nonnull %0, i8* nonnull %2) #9, !dbg !2613
  br label %_ZNK6String9compareToERKS_.exit, !dbg !2614

_ZNK6String9compareToERKS_.exit:                  ; preds = %if.then6.i, %if.end.i, %land.lhs.true10.i, %if.then13.i, %if.end17.i
  %retval.0.i = phi i16 [ %call.i, %if.end17.i ], [ %sub.i, %if.then6.i ], [ %conv15.i, %if.then13.i ], [ 0, %land.lhs.true10.i ], [ 0, %if.end.i ]
  %cmp = icmp slt i16 %retval.0.i, 1, !dbg !2615
  %conv = zext i1 %cmp to i8, !dbg !2616
  ret i8 %conv, !dbg !2617
}

; Function Attrs: nounwind readonly
define zeroext i8 @_ZNK6StringgeERKS_(%class.String* nocapture readonly %this, %class.String* nocapture readonly dereferenceable(6) %rhs) local_unnamed_addr #7 align 2 !dbg !2618 {
entry:
  tail call void @llvm.dbg.value(metadata %class.String* %this, i64 0, metadata !2620, metadata !266), !dbg !2622
  tail call void @llvm.dbg.value(metadata %class.String* %rhs, i64 0, metadata !2621, metadata !266), !dbg !2623
  tail call void @llvm.dbg.value(metadata %class.String* %this, i64 0, metadata !2440, metadata !266) #10, !dbg !2624
  tail call void @llvm.dbg.value(metadata %class.String* %rhs, i64 0, metadata !2442, metadata !266) #10, !dbg !2626
  %buffer.i = getelementptr inbounds %class.String, %class.String* %this, i16 0, i32 0, !dbg !2627
  %0 = load i8*, i8** %buffer.i, align 1, !dbg !2627, !tbaa !277
  %tobool.i = icmp ne i8* %0, null, !dbg !2627
  %1 = getelementptr inbounds %class.String, %class.String* %rhs, i16 0, i32 0, !dbg !2628
  %2 = load i8*, i8** %1, align 1, !dbg !2628, !tbaa !277
  %tobool3.i = icmp ne i8* %2, null, !dbg !2629
  %brmerge.demorgan.i = and i1 %tobool.i, %tobool3.i, !dbg !2630
  br i1 %brmerge.demorgan.i, label %if.end17.i, label %if.then.i, !dbg !2630

if.then.i:                                        ; preds = %entry
  br i1 %tobool3.i, label %land.lhs.true.i, label %_ZNK6String9compareToERKS_.exit, !dbg !2631

land.lhs.true.i:                                  ; preds = %if.then.i
  %len.i = getelementptr inbounds %class.String, %class.String* %rhs, i16 0, i32 2, !dbg !2632
  %3 = load i16, i16* %len.i, align 1, !dbg !2632, !tbaa !288
  %cmp.i = icmp eq i16 %3, 0, !dbg !2633
  br i1 %cmp.i, label %_ZNK6String9compareToERKS_.exit, label %if.then6.i, !dbg !2634

if.then6.i:                                       ; preds = %land.lhs.true.i
  %4 = load i8, i8* %2, align 1, !dbg !2635, !tbaa !337
  %conv.i = zext i8 %4 to i16, !dbg !2635
  %sub.i = sub nsw i16 0, %conv.i, !dbg !2636
  %extract2 = lshr i16 %sub.i, 15, !dbg !2637
  %extract.t3 = trunc i16 %extract2 to i8, !dbg !2637
  br label %_ZNK6String9compareToERKS_.exit, !dbg !2637

if.end17.i:                                       ; preds = %entry
  %call.i = tail call i16 @strcmp(i8* nonnull %0, i8* nonnull %2) #9, !dbg !2638
  %extract = lshr i16 %call.i, 15, !dbg !2639
  %extract.t = trunc i16 %extract to i8, !dbg !2639
  br label %_ZNK6String9compareToERKS_.exit, !dbg !2639

_ZNK6String9compareToERKS_.exit:                  ; preds = %if.then.i, %land.lhs.true.i, %if.then6.i, %if.end17.i
  %retval.0.i.off15 = phi i8 [ %extract.t, %if.end17.i ], [ %extract.t3, %if.then6.i ], [ 0, %land.lhs.true.i ], [ 0, %if.then.i ]
  %.not = xor i8 %retval.0.i.off15, 1, !dbg !2640
  ret i8 %.not, !dbg !2641
}

; Function Attrs: nounwind readonly
define zeroext i8 @_ZNK6String16equalsIgnoreCaseERKS_(%class.String* readonly %this, %class.String* readonly dereferenceable(6) %s2) local_unnamed_addr #7 align 2 !dbg !2642 {
entry:
  tail call void @llvm.dbg.value(metadata %class.String* %this, i64 0, metadata !2644, metadata !266), !dbg !2648
  tail call void @llvm.dbg.value(metadata %class.String* %s2, i64 0, metadata !2645, metadata !266), !dbg !2649
  %cmp = icmp eq %class.String* %this, %s2, !dbg !2650
  br i1 %cmp, label %return, label %if.end, !dbg !2652

if.end:                                           ; preds = %entry
  %len = getelementptr inbounds %class.String, %class.String* %this, i16 0, i32 2, !dbg !2653
  %0 = load i16, i16* %len, align 1, !dbg !2653, !tbaa !288
  %len2 = getelementptr inbounds %class.String, %class.String* %s2, i16 0, i32 2, !dbg !2655
  %1 = load i16, i16* %len2, align 1, !dbg !2655, !tbaa !288
  %cmp3 = icmp eq i16 %0, %1, !dbg !2656
  br i1 %cmp3, label %if.end5, label %return, !dbg !2657

if.end5:                                          ; preds = %if.end
  %cmp7 = icmp eq i16 %0, 0, !dbg !2658
  br i1 %cmp7, label %return, label %if.end9, !dbg !2660

if.end9:                                          ; preds = %if.end5
  %buffer = getelementptr inbounds %class.String, %class.String* %this, i16 0, i32 0, !dbg !2661
  %2 = load i8*, i8** %buffer, align 1, !dbg !2661, !tbaa !277
  tail call void @llvm.dbg.value(metadata i8* %2, i64 0, metadata !2646, metadata !266), !dbg !2662
  %buffer10 = getelementptr inbounds %class.String, %class.String* %s2, i16 0, i32 0, !dbg !2663
  %3 = load i8*, i8** %buffer10, align 1, !dbg !2663, !tbaa !277
  tail call void @llvm.dbg.value(metadata i8* %3, i64 0, metadata !2647, metadata !266), !dbg !2664
  br label %while.cond, !dbg !2665

while.cond:                                       ; preds = %while.body, %if.end9
  %p1.0 = phi i8* [ %2, %if.end9 ], [ %incdec.ptr, %while.body ]
  %p2.0 = phi i8* [ %3, %if.end9 ], [ %incdec.ptr11, %while.body ]
  tail call void @llvm.dbg.value(metadata i8* %p2.0, i64 0, metadata !2647, metadata !266), !dbg !2664
  tail call void @llvm.dbg.value(metadata i8* %p1.0, i64 0, metadata !2646, metadata !266), !dbg !2662
  %4 = load i8, i8* %p1.0, align 1, !dbg !2666, !tbaa !337
  %tobool = icmp eq i8 %4, 0, !dbg !2666
  br i1 %tobool, label %return.loopexit, label %while.body, !dbg !2668

while.body:                                       ; preds = %while.cond
  %incdec.ptr = getelementptr inbounds i8, i8* %p1.0, i16 1, !dbg !2669
  tail call void @llvm.dbg.value(metadata i8* %incdec.ptr, i64 0, metadata !2646, metadata !266), !dbg !2662
  %conv = sext i8 %4 to i16, !dbg !2672
  %call = tail call i16 @tolower(i16 %conv) #1, !dbg !2673
  %incdec.ptr11 = getelementptr inbounds i8, i8* %p2.0, i16 1, !dbg !2674
  tail call void @llvm.dbg.value(metadata i8* %incdec.ptr11, i64 0, metadata !2647, metadata !266), !dbg !2664
  %5 = load i8, i8* %p2.0, align 1, !dbg !2675, !tbaa !337
  %conv12 = sext i8 %5 to i16, !dbg !2675
  %call13 = tail call i16 @tolower(i16 %conv12) #1, !dbg !2676
  %cmp14 = icmp eq i16 %call, %call13, !dbg !2678
  br i1 %cmp14, label %while.cond, label %return.loopexit, !dbg !2679, !llvm.loop !2680

return.loopexit:                                  ; preds = %while.cond, %while.body
  %retval.1.ph = phi i8 [ 1, %while.cond ], [ 0, %while.body ]
  br label %return, !dbg !2682

return:                                           ; preds = %return.loopexit, %if.end5, %if.end, %entry
  %retval.1 = phi i8 [ 1, %entry ], [ 0, %if.end ], [ 1, %if.end5 ], [ %retval.1.ph, %return.loopexit ]
  ret i8 %retval.1, !dbg !2682
}

; Function Attrs: nounwind readnone
declare i16 @tolower(i16) local_unnamed_addr #8

; Function Attrs: nounwind readonly
define zeroext i8 @_ZNK6String10startsWithERKS_(%class.String* nocapture readonly %this, %class.String* nocapture readonly dereferenceable(6) %s2) local_unnamed_addr #7 align 2 !dbg !2683 {
entry:
  tail call void @llvm.dbg.value(metadata %class.String* %this, i64 0, metadata !2685, metadata !266), !dbg !2687
  tail call void @llvm.dbg.value(metadata %class.String* %s2, i64 0, metadata !2686, metadata !266), !dbg !2688
  %len = getelementptr inbounds %class.String, %class.String* %this, i16 0, i32 2, !dbg !2689
  %0 = load i16, i16* %len, align 1, !dbg !2689, !tbaa !288
  %len2 = getelementptr inbounds %class.String, %class.String* %s2, i16 0, i32 2, !dbg !2691
  %1 = load i16, i16* %len2, align 1, !dbg !2691, !tbaa !288
  %cmp = icmp ult i16 %0, %1, !dbg !2692
  br i1 %cmp, label %return, label %if.end, !dbg !2693

if.end:                                           ; preds = %entry
  tail call void @llvm.dbg.value(metadata %class.String* %this, i64 0, metadata !2694, metadata !266) #10, !dbg !2699
  tail call void @llvm.dbg.value(metadata %class.String* %s2, i64 0, metadata !2697, metadata !266) #10, !dbg !2701
  tail call void @llvm.dbg.value(metadata i16 0, i64 0, metadata !2698, metadata !266) #10, !dbg !2702
  %buffer.i = getelementptr inbounds %class.String, %class.String* %this, i16 0, i32 0, !dbg !2703
  %2 = load i8*, i8** %buffer.i, align 1, !dbg !2703, !tbaa !277
  %tobool.i = icmp eq i8* %2, null, !dbg !2703
  br i1 %tobool.i, label %return, label %lor.lhs.false3.i, !dbg !2706

lor.lhs.false3.i:                                 ; preds = %if.end
  %buffer4.i = getelementptr inbounds %class.String, %class.String* %s2, i16 0, i32 0, !dbg !2707
  %3 = load i8*, i8** %buffer4.i, align 1, !dbg !2707, !tbaa !277
  %tobool5.i = icmp eq i8* %3, null, !dbg !2709
  br i1 %tobool5.i, label %return, label %if.end.i, !dbg !2710

if.end.i:                                         ; preds = %lor.lhs.false3.i
  %call.i = tail call i16 @strncmp(i8* nonnull %2, i8* nonnull %3, i16 %1) #9, !dbg !2712
  %cmp9.i = icmp eq i16 %call.i, 0, !dbg !2713
  %conv.i = zext i1 %cmp9.i to i8, !dbg !2712
  br label %return, !dbg !2714

return:                                           ; preds = %if.end.i, %lor.lhs.false3.i, %if.end, %entry
  %retval.0 = phi i8 [ 0, %entry ], [ %conv.i, %if.end.i ], [ 0, %lor.lhs.false3.i ], [ 0, %if.end ]
  ret i8 %retval.0, !dbg !2715
}

; Function Attrs: nounwind readonly
define zeroext i8 @_ZNK6String10startsWithERKS_j(%class.String* nocapture readonly %this, %class.String* nocapture readonly dereferenceable(6) %s2, i16 %offset) local_unnamed_addr #7 align 2 !dbg !2695 {
entry:
  tail call void @llvm.dbg.value(metadata %class.String* %this, i64 0, metadata !2694, metadata !266), !dbg !2716
  tail call void @llvm.dbg.value(metadata %class.String* %s2, i64 0, metadata !2697, metadata !266), !dbg !2717
  tail call void @llvm.dbg.value(metadata i16 %offset, i64 0, metadata !2698, metadata !266), !dbg !2718
  %len = getelementptr inbounds %class.String, %class.String* %this, i16 0, i32 2, !dbg !2719
  %0 = load i16, i16* %len, align 1, !dbg !2719, !tbaa !288
  %len2 = getelementptr inbounds %class.String, %class.String* %s2, i16 0, i32 2, !dbg !2720
  %1 = load i16, i16* %len2, align 1, !dbg !2720, !tbaa !288
  %sub = sub i16 %0, %1, !dbg !2721
  %cmp = icmp ult i16 %sub, %offset, !dbg !2722
  br i1 %cmp, label %return, label %lor.lhs.false, !dbg !2723

lor.lhs.false:                                    ; preds = %entry
  %buffer = getelementptr inbounds %class.String, %class.String* %this, i16 0, i32 0, !dbg !2724
  %2 = load i8*, i8** %buffer, align 1, !dbg !2724, !tbaa !277
  %tobool = icmp eq i8* %2, null, !dbg !2724
  br i1 %tobool, label %return, label %lor.lhs.false3, !dbg !2725

lor.lhs.false3:                                   ; preds = %lor.lhs.false
  %buffer4 = getelementptr inbounds %class.String, %class.String* %s2, i16 0, i32 0, !dbg !2726
  %3 = load i8*, i8** %buffer4, align 1, !dbg !2726, !tbaa !277
  %tobool5 = icmp eq i8* %3, null, !dbg !2727
  br i1 %tobool5, label %return, label %if.end, !dbg !2728

if.end:                                           ; preds = %lor.lhs.false3
  %arrayidx = getelementptr inbounds i8, i8* %2, i16 %offset, !dbg !2729
  %call = tail call i16 @strncmp(i8* %arrayidx, i8* nonnull %3, i16 %1) #9, !dbg !2730
  %cmp9 = icmp eq i16 %call, 0, !dbg !2731
  %conv = zext i1 %cmp9 to i8, !dbg !2730
  br label %return, !dbg !2732

return:                                           ; preds = %entry, %lor.lhs.false, %lor.lhs.false3, %if.end
  %retval.0 = phi i8 [ %conv, %if.end ], [ 0, %lor.lhs.false3 ], [ 0, %lor.lhs.false ], [ 0, %entry ]
  ret i8 %retval.0, !dbg !2733
}

; Function Attrs: nounwind readonly
declare i16 @strncmp(i8*, i8*, i16) local_unnamed_addr #2

; Function Attrs: nounwind readonly
define zeroext i8 @_ZNK6String8endsWithERKS_(%class.String* nocapture readonly %this, %class.String* nocapture readonly dereferenceable(6) %s2) local_unnamed_addr #7 align 2 !dbg !2734 {
entry:
  tail call void @llvm.dbg.value(metadata %class.String* %this, i64 0, metadata !2736, metadata !266), !dbg !2738
  tail call void @llvm.dbg.value(metadata %class.String* %s2, i64 0, metadata !2737, metadata !266), !dbg !2739
  %len = getelementptr inbounds %class.String, %class.String* %this, i16 0, i32 2, !dbg !2740
  %0 = load i16, i16* %len, align 1, !dbg !2740, !tbaa !288
  %len2 = getelementptr inbounds %class.String, %class.String* %s2, i16 0, i32 2, !dbg !2742
  %1 = load i16, i16* %len2, align 1, !dbg !2742, !tbaa !288
  %cmp = icmp ult i16 %0, %1, !dbg !2743
  br i1 %cmp, label %return, label %lor.lhs.false, !dbg !2744

lor.lhs.false:                                    ; preds = %entry
  %buffer = getelementptr inbounds %class.String, %class.String* %this, i16 0, i32 0, !dbg !2745
  %2 = load i8*, i8** %buffer, align 1, !dbg !2745, !tbaa !277
  %tobool = icmp eq i8* %2, null, !dbg !2745
  br i1 %tobool, label %return, label %lor.lhs.false3, !dbg !2747

lor.lhs.false3:                                   ; preds = %lor.lhs.false
  %buffer4 = getelementptr inbounds %class.String, %class.String* %s2, i16 0, i32 0, !dbg !2748
  %3 = load i8*, i8** %buffer4, align 1, !dbg !2748, !tbaa !277
  %tobool5 = icmp eq i8* %3, null, !dbg !2750
  br i1 %tobool5, label %return, label %if.end, !dbg !2751

if.end:                                           ; preds = %lor.lhs.false3
  %sub = sub i16 %0, %1, !dbg !2753
  %arrayidx = getelementptr inbounds i8, i8* %2, i16 %sub, !dbg !2754
  %call = tail call i16 @strcmp(i8* %arrayidx, i8* nonnull %3) #9, !dbg !2755
  %cmp10 = icmp eq i16 %call, 0, !dbg !2756
  %conv = zext i1 %cmp10 to i8, !dbg !2755
  br label %return, !dbg !2757

return:                                           ; preds = %entry, %lor.lhs.false, %lor.lhs.false3, %if.end
  %retval.0 = phi i8 [ %conv, %if.end ], [ 0, %lor.lhs.false3 ], [ 0, %lor.lhs.false ], [ 0, %entry ]
  ret i8 %retval.0, !dbg !2758
}

; Function Attrs: nounwind readonly
define signext i8 @_ZNK6String6charAtEj(%class.String* nocapture readonly %this, i16 %loc) local_unnamed_addr #7 align 2 !dbg !2759 {
entry:
  tail call void @llvm.dbg.value(metadata %class.String* %this, i64 0, metadata !2761, metadata !266), !dbg !2763
  tail call void @llvm.dbg.value(metadata i16 %loc, i64 0, metadata !2762, metadata !266), !dbg !2764
  tail call void @llvm.dbg.value(metadata %class.String* %this, i64 0, metadata !2765, metadata !266), !dbg !2769
  tail call void @llvm.dbg.value(metadata i16 %loc, i64 0, metadata !2768, metadata !266), !dbg !2771
  %len.i = getelementptr inbounds %class.String, %class.String* %this, i16 0, i32 2, !dbg !2772
  %0 = load i16, i16* %len.i, align 1, !dbg !2772, !tbaa !288
  %cmp.i = icmp ugt i16 %0, %loc, !dbg !2774
  br i1 %cmp.i, label %lor.lhs.false.i, label %_ZNK6StringixEj.exit, !dbg !2775

lor.lhs.false.i:                                  ; preds = %entry
  %buffer.i = getelementptr inbounds %class.String, %class.String* %this, i16 0, i32 0, !dbg !2776
  %1 = load i8*, i8** %buffer.i, align 1, !dbg !2776, !tbaa !277
  %tobool.i = icmp eq i8* %1, null, !dbg !2776
  br i1 %tobool.i, label %_ZNK6StringixEj.exit, label %if.end.i, !dbg !2778

if.end.i:                                         ; preds = %lor.lhs.false.i
  %arrayidx.i = getelementptr inbounds i8, i8* %1, i16 %loc, !dbg !2780
  %2 = load i8, i8* %arrayidx.i, align 1, !dbg !2780, !tbaa !337
  br label %_ZNK6StringixEj.exit, !dbg !2781

_ZNK6StringixEj.exit:                             ; preds = %entry, %lor.lhs.false.i, %if.end.i
  %retval.0.i = phi i8 [ %2, %if.end.i ], [ 0, %lor.lhs.false.i ], [ 0, %entry ]
  ret i8 %retval.0.i, !dbg !2782
}

; Function Attrs: nounwind readonly
define signext i8 @_ZNK6StringixEj(%class.String* nocapture readonly %this, i16 %index) local_unnamed_addr #7 align 2 !dbg !2766 {
entry:
  tail call void @llvm.dbg.value(metadata %class.String* %this, i64 0, metadata !2765, metadata !266), !dbg !2783
  tail call void @llvm.dbg.value(metadata i16 %index, i64 0, metadata !2768, metadata !266), !dbg !2784
  %len = getelementptr inbounds %class.String, %class.String* %this, i16 0, i32 2, !dbg !2785
  %0 = load i16, i16* %len, align 1, !dbg !2785, !tbaa !288
  %cmp = icmp ugt i16 %0, %index, !dbg !2786
  br i1 %cmp, label %lor.lhs.false, label %return, !dbg !2787

lor.lhs.false:                                    ; preds = %entry
  %buffer = getelementptr inbounds %class.String, %class.String* %this, i16 0, i32 0, !dbg !2788
  %1 = load i8*, i8** %buffer, align 1, !dbg !2788, !tbaa !277
  %tobool = icmp eq i8* %1, null, !dbg !2788
  br i1 %tobool, label %return, label %if.end, !dbg !2789

if.end:                                           ; preds = %lor.lhs.false
  %arrayidx = getelementptr inbounds i8, i8* %1, i16 %index, !dbg !2790
  %2 = load i8, i8* %arrayidx, align 1, !dbg !2790, !tbaa !337
  br label %return, !dbg !2791

return:                                           ; preds = %entry, %lor.lhs.false, %if.end
  %retval.0 = phi i8 [ %2, %if.end ], [ 0, %lor.lhs.false ], [ 0, %entry ]
  ret i8 %retval.0, !dbg !2792
}

; Function Attrs: nounwind
define void @_ZN6String9setCharAtEjc(%class.String* nocapture readonly %this, i16 %loc, i8 signext %c) local_unnamed_addr #0 align 2 !dbg !2793 {
entry:
  tail call void @llvm.dbg.value(metadata %class.String* %this, i64 0, metadata !2795, metadata !266), !dbg !2798
  tail call void @llvm.dbg.value(metadata i16 %loc, i64 0, metadata !2796, metadata !266), !dbg !2799
  tail call void @llvm.dbg.value(metadata i8 %c, i64 0, metadata !2797, metadata !266), !dbg !2800
  %len = getelementptr inbounds %class.String, %class.String* %this, i16 0, i32 2, !dbg !2801
  %0 = load i16, i16* %len, align 1, !dbg !2801, !tbaa !288
  %cmp = icmp ugt i16 %0, %loc, !dbg !2803
  br i1 %cmp, label %if.then, label %if.end, !dbg !2804

if.then:                                          ; preds = %entry
  %buffer = getelementptr inbounds %class.String, %class.String* %this, i16 0, i32 0, !dbg !2805
  %1 = load i8*, i8** %buffer, align 1, !dbg !2805, !tbaa !277
  %arrayidx = getelementptr inbounds i8, i8* %1, i16 %loc, !dbg !2805
  store i8 %c, i8* %arrayidx, align 1, !dbg !2807, !tbaa !337
  br label %if.end, !dbg !2805

if.end:                                           ; preds = %if.then, %entry
  ret void, !dbg !2808
}

; Function Attrs: nounwind
define dereferenceable(1) i8* @_ZN6StringixEj(%class.String* nocapture readonly %this, i16 %index) local_unnamed_addr #0 align 2 !dbg !1 {
entry:
  tail call void @llvm.dbg.value(metadata %class.String* %this, i64 0, metadata !256, metadata !266), !dbg !2809
  tail call void @llvm.dbg.value(metadata i16 %index, i64 0, metadata !258, metadata !266), !dbg !2810
  %len = getelementptr inbounds %class.String, %class.String* %this, i16 0, i32 2, !dbg !2811
  %0 = load i16, i16* %len, align 1, !dbg !2811, !tbaa !288
  %cmp = icmp ugt i16 %0, %index, !dbg !2813
  br i1 %cmp, label %lor.lhs.false, label %if.then, !dbg !2814

lor.lhs.false:                                    ; preds = %entry
  %buffer = getelementptr inbounds %class.String, %class.String* %this, i16 0, i32 0, !dbg !2815
  %1 = load i8*, i8** %buffer, align 1, !dbg !2815, !tbaa !277
  %tobool = icmp eq i8* %1, null, !dbg !2815
  br i1 %tobool, label %if.then, label %if.end, !dbg !2817

if.then:                                          ; preds = %lor.lhs.false, %entry
  store i8 0, i8* @_ZZN6StringixEjE19dummy_writable_char, align 1, !dbg !2819, !tbaa !337
  br label %return, !dbg !2821

if.end:                                           ; preds = %lor.lhs.false
  %arrayidx = getelementptr inbounds i8, i8* %1, i16 %index, !dbg !2822
  br label %return, !dbg !2823

return:                                           ; preds = %if.end, %if.then
  %retval.0 = phi i8* [ @_ZZN6StringixEjE19dummy_writable_char, %if.then ], [ %arrayidx, %if.end ]
  ret i8* %retval.0, !dbg !2824
}

; Function Attrs: nounwind
define void @_ZNK6String8getBytesEPhjj(%class.String* nocapture readonly %this, i8* %buf, i16 %bufsize, i16 %index) local_unnamed_addr #0 align 2 !dbg !2825 {
entry:
  tail call void @llvm.dbg.value(metadata %class.String* %this, i64 0, metadata !2827, metadata !266), !dbg !2832
  tail call void @llvm.dbg.value(metadata i8* %buf, i64 0, metadata !2828, metadata !266), !dbg !2833
  tail call void @llvm.dbg.value(metadata i16 %bufsize, i64 0, metadata !2829, metadata !266), !dbg !2834
  tail call void @llvm.dbg.value(metadata i16 %index, i64 0, metadata !2830, metadata !266), !dbg !2835
  %tobool = icmp ne i16 %bufsize, 0, !dbg !2836
  %tobool2 = icmp ne i8* %buf, null, !dbg !2838
  %or.cond = and i1 %tobool2, %tobool, !dbg !2840
  br i1 %or.cond, label %if.end, label %return, !dbg !2840

if.end:                                           ; preds = %entry
  %len = getelementptr inbounds %class.String, %class.String* %this, i16 0, i32 2, !dbg !2841
  %0 = load i16, i16* %len, align 1, !dbg !2841, !tbaa !288
  %cmp = icmp ugt i16 %0, %index, !dbg !2843
  br i1 %cmp, label %if.end4, label %return.sink.split, !dbg !2844

if.end4:                                          ; preds = %if.end
  %sub = add i16 %bufsize, -1, !dbg !2845
  tail call void @llvm.dbg.value(metadata i16 %sub, i64 0, metadata !2831, metadata !266), !dbg !2846
  %sub6 = sub i16 %0, %index, !dbg !2847
  %cmp7 = icmp ugt i16 %sub, %sub6, !dbg !2849
  tail call void @llvm.dbg.value(metadata i16 %sub6, i64 0, metadata !2831, metadata !266), !dbg !2846
  %sub6.sub = select i1 %cmp7, i16 %sub6, i16 %sub, !dbg !2850
  tail call void @llvm.dbg.value(metadata i16 %sub6.sub, i64 0, metadata !2831, metadata !266), !dbg !2846
  %buffer = getelementptr inbounds %class.String, %class.String* %this, i16 0, i32 0, !dbg !2851
  %1 = load i8*, i8** %buffer, align 1, !dbg !2851, !tbaa !277
  %add.ptr = getelementptr inbounds i8, i8* %1, i16 %index, !dbg !2852
  %call = tail call i8* @strncpy(i8* nonnull %buf, i8* %add.ptr, i16 %sub6.sub), !dbg !2853
  %arrayidx12 = getelementptr inbounds i8, i8* %buf, i16 %sub6.sub, !dbg !2854
  br label %return.sink.split, !dbg !2855

return.sink.split:                                ; preds = %if.end, %if.end4
  %arrayidx12.sink = phi i8* [ %arrayidx12, %if.end4 ], [ %buf, %if.end ]
  store i8 0, i8* %arrayidx12.sink, align 1, !dbg !2856, !tbaa !337
  br label %return, !dbg !2857

return:                                           ; preds = %return.sink.split, %entry
  ret void, !dbg !2857
}

; Function Attrs: nounwind
declare i8* @strncpy(i8*, i8* nocapture readonly, i16) local_unnamed_addr #6

; Function Attrs: nounwind readonly
define i16 @_ZNK6String7indexOfEc(%class.String* nocapture readonly %this, i8 signext %c) local_unnamed_addr #7 align 2 !dbg !2859 {
entry:
  tail call void @llvm.dbg.value(metadata %class.String* %this, i64 0, metadata !2861, metadata !266), !dbg !2863
  tail call void @llvm.dbg.value(metadata i8 %c, i64 0, metadata !2862, metadata !266), !dbg !2864
  tail call void @llvm.dbg.value(metadata %class.String* %this, i64 0, metadata !2865, metadata !266) #10, !dbg !2871
  tail call void @llvm.dbg.value(metadata i8 %c, i64 0, metadata !2868, metadata !266) #10, !dbg !2873
  tail call void @llvm.dbg.value(metadata i16 0, i64 0, metadata !2869, metadata !266) #10, !dbg !2874
  %len.i = getelementptr inbounds %class.String, %class.String* %this, i16 0, i32 2, !dbg !2875
  %0 = load i16, i16* %len.i, align 1, !dbg !2875, !tbaa !288
  %cmp.i = icmp eq i16 %0, 0, !dbg !2877
  br i1 %cmp.i, label %_ZNK6String7indexOfEcj.exit, label %if.end.i, !dbg !2878

if.end.i:                                         ; preds = %entry
  %buffer.i = getelementptr inbounds %class.String, %class.String* %this, i16 0, i32 0, !dbg !2879
  %1 = load i8*, i8** %buffer.i, align 1, !dbg !2879, !tbaa !277
  %conv.i = sext i8 %c to i16, !dbg !2880
  %call.i = tail call i8* @strchr(i8* %1, i16 %conv.i) #9, !dbg !2881
  tail call void @llvm.dbg.value(metadata i8* %call.i, i64 0, metadata !2870, metadata !266) #10, !dbg !2882
  %cmp2.i = icmp eq i8* %call.i, null, !dbg !2883
  br i1 %cmp2.i, label %_ZNK6String7indexOfEcj.exit, label %if.end4.i, !dbg !2885

if.end4.i:                                        ; preds = %if.end.i
  %sub.ptr.lhs.cast.i = ptrtoint i8* %call.i to i16, !dbg !2886
  %sub.ptr.rhs.cast.i = ptrtoint i8* %1 to i16, !dbg !2886
  %sub.ptr.sub.i = sub i16 %sub.ptr.lhs.cast.i, %sub.ptr.rhs.cast.i, !dbg !2886
  br label %_ZNK6String7indexOfEcj.exit, !dbg !2887

_ZNK6String7indexOfEcj.exit:                      ; preds = %entry, %if.end.i, %if.end4.i
  %retval.1.i = phi i16 [ -1, %entry ], [ %sub.ptr.sub.i, %if.end4.i ], [ -1, %if.end.i ]
  ret i16 %retval.1.i, !dbg !2888
}

; Function Attrs: nounwind readonly
define i16 @_ZNK6String7indexOfEcj(%class.String* nocapture readonly %this, i8 signext %ch, i16 %fromIndex) local_unnamed_addr #7 align 2 !dbg !2866 {
entry:
  tail call void @llvm.dbg.value(metadata %class.String* %this, i64 0, metadata !2865, metadata !266), !dbg !2889
  tail call void @llvm.dbg.value(metadata i8 %ch, i64 0, metadata !2868, metadata !266), !dbg !2890
  tail call void @llvm.dbg.value(metadata i16 %fromIndex, i64 0, metadata !2869, metadata !266), !dbg !2891
  %len = getelementptr inbounds %class.String, %class.String* %this, i16 0, i32 2, !dbg !2892
  %0 = load i16, i16* %len, align 1, !dbg !2892, !tbaa !288
  %cmp = icmp ugt i16 %0, %fromIndex, !dbg !2893
  br i1 %cmp, label %if.end, label %return, !dbg !2894

if.end:                                           ; preds = %entry
  %buffer = getelementptr inbounds %class.String, %class.String* %this, i16 0, i32 0, !dbg !2895
  %1 = load i8*, i8** %buffer, align 1, !dbg !2895, !tbaa !277
  %add.ptr = getelementptr inbounds i8, i8* %1, i16 %fromIndex, !dbg !2896
  %conv = sext i8 %ch to i16, !dbg !2897
  %call = tail call i8* @strchr(i8* %add.ptr, i16 %conv) #9, !dbg !2898
  tail call void @llvm.dbg.value(metadata i8* %call, i64 0, metadata !2870, metadata !266), !dbg !2899
  %cmp2 = icmp eq i8* %call, null, !dbg !2900
  br i1 %cmp2, label %return, label %if.end4, !dbg !2901

if.end4:                                          ; preds = %if.end
  %sub.ptr.lhs.cast = ptrtoint i8* %call to i16, !dbg !2902
  %sub.ptr.rhs.cast = ptrtoint i8* %1 to i16, !dbg !2902
  %sub.ptr.sub = sub i16 %sub.ptr.lhs.cast, %sub.ptr.rhs.cast, !dbg !2902
  br label %return, !dbg !2903

return:                                           ; preds = %if.end4, %if.end, %entry
  %retval.1 = phi i16 [ -1, %entry ], [ %sub.ptr.sub, %if.end4 ], [ -1, %if.end ]
  ret i16 %retval.1, !dbg !2904
}

; Function Attrs: nounwind readonly
declare i8* @strchr(i8*, i16) local_unnamed_addr #2

; Function Attrs: nounwind readonly
define i16 @_ZNK6String7indexOfERKS_(%class.String* nocapture readonly %this, %class.String* nocapture readonly dereferenceable(6) %s2) local_unnamed_addr #7 align 2 !dbg !2906 {
entry:
  tail call void @llvm.dbg.value(metadata %class.String* %this, i64 0, metadata !2908, metadata !266), !dbg !2910
  tail call void @llvm.dbg.value(metadata %class.String* %s2, i64 0, metadata !2909, metadata !266), !dbg !2911
  tail call void @llvm.dbg.value(metadata %class.String* %this, i64 0, metadata !2912, metadata !266) #10, !dbg !2918
  tail call void @llvm.dbg.value(metadata %class.String* %s2, i64 0, metadata !2915, metadata !266) #10, !dbg !2920
  tail call void @llvm.dbg.value(metadata i16 0, i64 0, metadata !2916, metadata !266) #10, !dbg !2921
  %len.i = getelementptr inbounds %class.String, %class.String* %this, i16 0, i32 2, !dbg !2922
  %0 = load i16, i16* %len.i, align 1, !dbg !2922, !tbaa !288
  %cmp.i = icmp eq i16 %0, 0, !dbg !2924
  br i1 %cmp.i, label %_ZNK6String7indexOfERKS_j.exit, label %if.end.i, !dbg !2925

if.end.i:                                         ; preds = %entry
  %buffer.i = getelementptr inbounds %class.String, %class.String* %this, i16 0, i32 0, !dbg !2926
  %1 = load i8*, i8** %buffer.i, align 1, !dbg !2926, !tbaa !277
  %buffer2.i = getelementptr inbounds %class.String, %class.String* %s2, i16 0, i32 0, !dbg !2927
  %2 = load i8*, i8** %buffer2.i, align 1, !dbg !2927, !tbaa !277
  %call.i = tail call i8* @strstr(i8* %1, i8* %2) #9, !dbg !2928
  tail call void @llvm.dbg.value(metadata i8* %call.i, i64 0, metadata !2917, metadata !266) #10, !dbg !2929
  %cmp3.i = icmp eq i8* %call.i, null, !dbg !2930
  br i1 %cmp3.i, label %_ZNK6String7indexOfERKS_j.exit, label %if.end5.i, !dbg !2932

if.end5.i:                                        ; preds = %if.end.i
  %sub.ptr.lhs.cast.i = ptrtoint i8* %call.i to i16, !dbg !2933
  %sub.ptr.rhs.cast.i = ptrtoint i8* %1 to i16, !dbg !2933
  %sub.ptr.sub.i = sub i16 %sub.ptr.lhs.cast.i, %sub.ptr.rhs.cast.i, !dbg !2933
  br label %_ZNK6String7indexOfERKS_j.exit, !dbg !2934

_ZNK6String7indexOfERKS_j.exit:                   ; preds = %entry, %if.end.i, %if.end5.i
  %retval.1.i = phi i16 [ -1, %entry ], [ %sub.ptr.sub.i, %if.end5.i ], [ -1, %if.end.i ]
  ret i16 %retval.1.i, !dbg !2935
}

; Function Attrs: nounwind readonly
define i16 @_ZNK6String7indexOfERKS_j(%class.String* nocapture readonly %this, %class.String* nocapture readonly dereferenceable(6) %s2, i16 %fromIndex) local_unnamed_addr #7 align 2 !dbg !2913 {
entry:
  tail call void @llvm.dbg.value(metadata %class.String* %this, i64 0, metadata !2912, metadata !266), !dbg !2936
  tail call void @llvm.dbg.value(metadata %class.String* %s2, i64 0, metadata !2915, metadata !266), !dbg !2937
  tail call void @llvm.dbg.value(metadata i16 %fromIndex, i64 0, metadata !2916, metadata !266), !dbg !2938
  %len = getelementptr inbounds %class.String, %class.String* %this, i16 0, i32 2, !dbg !2939
  %0 = load i16, i16* %len, align 1, !dbg !2939, !tbaa !288
  %cmp = icmp ugt i16 %0, %fromIndex, !dbg !2940
  br i1 %cmp, label %if.end, label %return, !dbg !2941

if.end:                                           ; preds = %entry
  %buffer = getelementptr inbounds %class.String, %class.String* %this, i16 0, i32 0, !dbg !2942
  %1 = load i8*, i8** %buffer, align 1, !dbg !2942, !tbaa !277
  %add.ptr = getelementptr inbounds i8, i8* %1, i16 %fromIndex, !dbg !2943
  %buffer2 = getelementptr inbounds %class.String, %class.String* %s2, i16 0, i32 0, !dbg !2944
  %2 = load i8*, i8** %buffer2, align 1, !dbg !2944, !tbaa !277
  %call = tail call i8* @strstr(i8* %add.ptr, i8* %2) #9, !dbg !2945
  tail call void @llvm.dbg.value(metadata i8* %call, i64 0, metadata !2917, metadata !266), !dbg !2946
  %cmp3 = icmp eq i8* %call, null, !dbg !2947
  br i1 %cmp3, label %return, label %if.end5, !dbg !2948

if.end5:                                          ; preds = %if.end
  %sub.ptr.lhs.cast = ptrtoint i8* %call to i16, !dbg !2949
  %sub.ptr.rhs.cast = ptrtoint i8* %1 to i16, !dbg !2949
  %sub.ptr.sub = sub i16 %sub.ptr.lhs.cast, %sub.ptr.rhs.cast, !dbg !2949
  br label %return, !dbg !2950

return:                                           ; preds = %if.end5, %if.end, %entry
  %retval.1 = phi i16 [ -1, %entry ], [ %sub.ptr.sub, %if.end5 ], [ -1, %if.end ]
  ret i16 %retval.1, !dbg !2951
}

; Function Attrs: nounwind readonly
declare i8* @strstr(i8*, i8* nocapture) local_unnamed_addr #2

; Function Attrs: nounwind
define i16 @_ZNK6String11lastIndexOfEc(%class.String* nocapture readonly %this, i8 signext %theChar) local_unnamed_addr #0 align 2 !dbg !2953 {
entry:
  tail call void @llvm.dbg.value(metadata %class.String* %this, i64 0, metadata !2955, metadata !266), !dbg !2957
  tail call void @llvm.dbg.value(metadata i8 %theChar, i64 0, metadata !2956, metadata !266), !dbg !2958
  %len = getelementptr inbounds %class.String, %class.String* %this, i16 0, i32 2, !dbg !2959
  %0 = load i16, i16* %len, align 1, !dbg !2959, !tbaa !288
  tail call void @llvm.dbg.value(metadata %class.String* %this, i64 0, metadata !2960, metadata !266) #10, !dbg !2967
  tail call void @llvm.dbg.value(metadata i8 %theChar, i64 0, metadata !2963, metadata !266) #10, !dbg !2969
  %cmp.i = icmp eq i16 %0, 0, !dbg !2970
  br i1 %cmp.i, label %_ZNK6String11lastIndexOfEcj.exit, label %if.end.i, !dbg !2972

if.end.i:                                         ; preds = %entry
  %buffer.i = getelementptr inbounds %class.String, %class.String* %this, i16 0, i32 0, !dbg !2973
  %1 = load i8*, i8** %buffer.i, align 1, !dbg !2973, !tbaa !277
  %arrayidx.i = getelementptr inbounds i8, i8* %1, i16 %0, !dbg !2973
  %2 = load i8, i8* %arrayidx.i, align 1, !dbg !2973, !tbaa !337
  tail call void @llvm.dbg.value(metadata i8 %2, i64 0, metadata !2965, metadata !266) #10, !dbg !2974
  store i8 0, i8* %arrayidx.i, align 1, !dbg !2975, !tbaa !337
  %3 = load i8*, i8** %buffer.i, align 1, !dbg !2976, !tbaa !277
  %conv.i = sext i8 %theChar to i16, !dbg !2977
  %call.i = tail call i8* @strrchr(i8* %3, i16 %conv.i) #9, !dbg !2978
  tail call void @llvm.dbg.value(metadata i8* %call.i, i64 0, metadata !2966, metadata !266) #10, !dbg !2979
  %arrayidx8.i = getelementptr inbounds i8, i8* %3, i16 %0, !dbg !2980
  store i8 %2, i8* %arrayidx8.i, align 1, !dbg !2981, !tbaa !337
  %cmp9.i = icmp eq i8* %call.i, null, !dbg !2982
  br i1 %cmp9.i, label %_ZNK6String11lastIndexOfEcj.exit, label %if.end11.i, !dbg !2984

if.end11.i:                                       ; preds = %if.end.i
  %4 = bitcast %class.String* %this to i16*, !dbg !2985
  %5 = load i16, i16* %4, align 1, !dbg !2985, !tbaa !277
  %sub.ptr.lhs.cast.i = ptrtoint i8* %call.i to i16, !dbg !2986
  %sub.ptr.sub.i = sub i16 %sub.ptr.lhs.cast.i, %5, !dbg !2986
  br label %_ZNK6String11lastIndexOfEcj.exit, !dbg !2987

_ZNK6String11lastIndexOfEcj.exit:                 ; preds = %entry, %if.end.i, %if.end11.i
  %retval.1.i = phi i16 [ -1, %entry ], [ %sub.ptr.sub.i, %if.end11.i ], [ -1, %if.end.i ]
  ret i16 %retval.1.i, !dbg !2988
}

; Function Attrs: nounwind
define i16 @_ZNK6String11lastIndexOfEcj(%class.String* nocapture readonly %this, i8 signext %ch, i16 %fromIndex) local_unnamed_addr #0 align 2 !dbg !2961 {
entry:
  tail call void @llvm.dbg.value(metadata %class.String* %this, i64 0, metadata !2960, metadata !266), !dbg !2989
  tail call void @llvm.dbg.value(metadata i8 %ch, i64 0, metadata !2963, metadata !266), !dbg !2990
  tail call void @llvm.dbg.value(metadata i16 %fromIndex, i64 0, metadata !2964, metadata !266), !dbg !2991
  %len = getelementptr inbounds %class.String, %class.String* %this, i16 0, i32 2, !dbg !2992
  %0 = load i16, i16* %len, align 1, !dbg !2992, !tbaa !288
  %cmp = icmp ugt i16 %0, %fromIndex, !dbg !2993
  br i1 %cmp, label %if.end, label %return, !dbg !2994

if.end:                                           ; preds = %entry
  %buffer = getelementptr inbounds %class.String, %class.String* %this, i16 0, i32 0, !dbg !2995
  %1 = load i8*, i8** %buffer, align 1, !dbg !2995, !tbaa !277
  %add = add nuw i16 %fromIndex, 1, !dbg !2996
  %arrayidx = getelementptr inbounds i8, i8* %1, i16 %add, !dbg !2995
  %2 = load i8, i8* %arrayidx, align 1, !dbg !2995, !tbaa !337
  tail call void @llvm.dbg.value(metadata i8 %2, i64 0, metadata !2965, metadata !266), !dbg !2997
  store i8 0, i8* %arrayidx, align 1, !dbg !2998, !tbaa !337
  %3 = load i8*, i8** %buffer, align 1, !dbg !2999, !tbaa !277
  %conv = sext i8 %ch to i16, !dbg !3000
  %call = tail call i8* @strrchr(i8* %3, i16 %conv) #9, !dbg !3001
  tail call void @llvm.dbg.value(metadata i8* %call, i64 0, metadata !2966, metadata !266), !dbg !3002
  %arrayidx8 = getelementptr inbounds i8, i8* %3, i16 %add, !dbg !3003
  store i8 %2, i8* %arrayidx8, align 1, !dbg !3004, !tbaa !337
  %cmp9 = icmp eq i8* %call, null, !dbg !3005
  br i1 %cmp9, label %return, label %if.end11, !dbg !3006

if.end11:                                         ; preds = %if.end
  %4 = bitcast %class.String* %this to i16*, !dbg !3007
  %5 = load i16, i16* %4, align 1, !dbg !3007, !tbaa !277
  %sub.ptr.lhs.cast = ptrtoint i8* %call to i16, !dbg !3008
  %sub.ptr.sub = sub i16 %sub.ptr.lhs.cast, %5, !dbg !3008
  br label %return, !dbg !3009

return:                                           ; preds = %if.end11, %if.end, %entry
  %retval.1 = phi i16 [ -1, %entry ], [ %sub.ptr.sub, %if.end11 ], [ -1, %if.end ]
  ret i16 %retval.1, !dbg !3010
}

; Function Attrs: nounwind readonly
declare i8* @strrchr(i8*, i16) local_unnamed_addr #2

; Function Attrs: nounwind readonly
define i16 @_ZNK6String11lastIndexOfERKS_(%class.String* nocapture readonly %this, %class.String* nocapture readonly dereferenceable(6) %s2) local_unnamed_addr #7 align 2 !dbg !3012 {
entry:
  tail call void @llvm.dbg.value(metadata %class.String* %this, i64 0, metadata !3014, metadata !266), !dbg !3016
  tail call void @llvm.dbg.value(metadata %class.String* %s2, i64 0, metadata !3015, metadata !266), !dbg !3017
  %len = getelementptr inbounds %class.String, %class.String* %this, i16 0, i32 2, !dbg !3018
  %0 = load i16, i16* %len, align 1, !dbg !3018, !tbaa !288
  %len2 = getelementptr inbounds %class.String, %class.String* %s2, i16 0, i32 2, !dbg !3019
  %1 = load i16, i16* %len2, align 1, !dbg !3019, !tbaa !288
  %sub = sub i16 %0, %1, !dbg !3020
  tail call void @llvm.dbg.value(metadata %class.String* %this, i64 0, metadata !3021, metadata !266) #10, !dbg !3029
  tail call void @llvm.dbg.value(metadata %class.String* %s2, i64 0, metadata !3024, metadata !266) #10, !dbg !3031
  tail call void @llvm.dbg.value(metadata i16 %sub, i64 0, metadata !3025, metadata !266) #10, !dbg !3032
  %cmp.i = icmp eq i16 %1, 0, !dbg !3033
  br i1 %cmp.i, label %_ZNK6String11lastIndexOfERKS_j.exit, label %lor.lhs.false.i, !dbg !3035

lor.lhs.false.i:                                  ; preds = %entry
  %cmp3.i = icmp eq i16 %0, 0, !dbg !3036
  %cmp7.i = icmp ult i16 %0, %1, !dbg !3038
  %or.cond.i = or i1 %cmp3.i, %cmp7.i, !dbg !3040
  br i1 %or.cond.i, label %_ZNK6String11lastIndexOfERKS_j.exit, label %if.end.i, !dbg !3040

if.end.i:                                         ; preds = %lor.lhs.false.i
  %cmp9.i = icmp ugt i16 %0, %sub, !dbg !3041
  %sub.i = add i16 %0, -1, !dbg !3043
  tail call void @llvm.dbg.value(metadata i16 %sub.i, i64 0, metadata !3025, metadata !266) #10, !dbg !3032
  %fromIndex.sub.i = select i1 %cmp9.i, i16 %sub, i16 %sub.i, !dbg !3045
  tail call void @llvm.dbg.value(metadata i16 %fromIndex.sub.i, i64 0, metadata !3025, metadata !266) #10, !dbg !3032
  tail call void @llvm.dbg.value(metadata i16 -1, i64 0, metadata !3026, metadata !266) #10, !dbg !3046
  %buffer.i = getelementptr inbounds %class.String, %class.String* %this, i16 0, i32 0, !dbg !3047
  %2 = load i8*, i8** %buffer.i, align 1, !dbg !3047, !tbaa !277
  tail call void @llvm.dbg.value(metadata i8* %2, i64 0, metadata !3027, metadata !266) #10, !dbg !3048
  tail call void @llvm.dbg.value(metadata i8* %2, i64 0, metadata !3027, metadata !266) #10, !dbg !3048
  tail call void @llvm.dbg.value(metadata i16 -1, i64 0, metadata !3026, metadata !266) #10, !dbg !3046
  %cmp1439.i = icmp slt i16 %fromIndex.sub.i, 0, !dbg !3049
  br i1 %cmp1439.i, label %_ZNK6String11lastIndexOfERKS_j.exit, label %for.body.lr.ph.i, !dbg !3052

for.body.lr.ph.i:                                 ; preds = %if.end.i
  %buffer15.i = getelementptr inbounds %class.String, %class.String* %s2, i16 0, i32 0, !dbg !3054
  %3 = load i8*, i8** %buffer15.i, align 1, !dbg !3054, !tbaa !277
  %sub.ptr.rhs.cast.i = ptrtoint i8* %2 to i16, !dbg !3056
  %add.ptr.i = getelementptr inbounds i8, i8* %2, i16 %fromIndex.sub.i, !dbg !3058
  br label %for.body.i, !dbg !3052

for.body.i:                                       ; preds = %if.end17.i, %for.body.lr.ph.i
  %p.041.i = phi i8* [ %2, %for.body.lr.ph.i ], [ %incdec.ptr.i, %if.end17.i ]
  %found.040.i = phi i16 [ -1, %for.body.lr.ph.i ], [ %found.0.sub.ptr.sub.i, %if.end17.i ]
  %call.i = tail call i8* @strstr(i8* %p.041.i, i8* %3) #9, !dbg !3059
  tail call void @llvm.dbg.value(metadata i8* %call.i, i64 0, metadata !3027, metadata !266) #10, !dbg !3048
  %tobool.i = icmp eq i8* %call.i, null, !dbg !3060
  br i1 %tobool.i, label %_ZNK6String11lastIndexOfERKS_j.exit.loopexit, label %if.end17.i, !dbg !3062

if.end17.i:                                       ; preds = %for.body.i
  %sub.ptr.lhs.cast.i = ptrtoint i8* %call.i to i16, !dbg !3056
  %sub.ptr.sub.i = sub i16 %sub.ptr.lhs.cast.i, %sub.ptr.rhs.cast.i, !dbg !3056
  %cmp19.i = icmp ugt i16 %sub.ptr.sub.i, %fromIndex.sub.i, !dbg !3063
  tail call void @llvm.dbg.value(metadata i16 %sub.ptr.sub.i, i64 0, metadata !3026, metadata !266) #10, !dbg !3046
  %found.0.sub.ptr.sub.i = select i1 %cmp19.i, i16 %found.040.i, i16 %sub.ptr.sub.i, !dbg !3064
  tail call void @llvm.dbg.value(metadata i16 %found.0.sub.ptr.sub.i, i64 0, metadata !3026, metadata !266) #10, !dbg !3046
  %incdec.ptr.i = getelementptr inbounds i8, i8* %call.i, i16 1, !dbg !3065
  tail call void @llvm.dbg.value(metadata i8* %incdec.ptr.i, i64 0, metadata !3027, metadata !266) #10, !dbg !3048
  tail call void @llvm.dbg.value(metadata i8* %incdec.ptr.i, i64 0, metadata !3027, metadata !266) #10, !dbg !3048
  tail call void @llvm.dbg.value(metadata i16 %found.0.sub.ptr.sub.i, i64 0, metadata !3026, metadata !266) #10, !dbg !3046
  %cmp14.i = icmp ugt i8* %incdec.ptr.i, %add.ptr.i, !dbg !3049
  br i1 %cmp14.i, label %_ZNK6String11lastIndexOfERKS_j.exit.loopexit, label %for.body.i, !dbg !3052, !llvm.loop !3067

_ZNK6String11lastIndexOfERKS_j.exit.loopexit:     ; preds = %if.end17.i, %for.body.i
  %retval.0.i.ph = phi i16 [ %found.0.sub.ptr.sub.i, %if.end17.i ], [ %found.040.i, %for.body.i ]
  br label %_ZNK6String11lastIndexOfERKS_j.exit, !dbg !3070

_ZNK6String11lastIndexOfERKS_j.exit:              ; preds = %_ZNK6String11lastIndexOfERKS_j.exit.loopexit, %entry, %lor.lhs.false.i, %if.end.i
  %retval.0.i = phi i16 [ -1, %lor.lhs.false.i ], [ -1, %entry ], [ -1, %if.end.i ], [ %retval.0.i.ph, %_ZNK6String11lastIndexOfERKS_j.exit.loopexit ]
  ret i16 %retval.0.i, !dbg !3070
}

; Function Attrs: nounwind readonly
define i16 @_ZNK6String11lastIndexOfERKS_j(%class.String* nocapture readonly %this, %class.String* nocapture readonly dereferenceable(6) %s2, i16 %fromIndex) local_unnamed_addr #7 align 2 !dbg !3022 {
entry:
  tail call void @llvm.dbg.value(metadata %class.String* %this, i64 0, metadata !3021, metadata !266), !dbg !3071
  tail call void @llvm.dbg.value(metadata %class.String* %s2, i64 0, metadata !3024, metadata !266), !dbg !3072
  tail call void @llvm.dbg.value(metadata i16 %fromIndex, i64 0, metadata !3025, metadata !266), !dbg !3073
  %len = getelementptr inbounds %class.String, %class.String* %s2, i16 0, i32 2, !dbg !3074
  %0 = load i16, i16* %len, align 1, !dbg !3074, !tbaa !288
  %cmp = icmp eq i16 %0, 0, !dbg !3075
  br i1 %cmp, label %return, label %lor.lhs.false, !dbg !3076

lor.lhs.false:                                    ; preds = %entry
  %len2 = getelementptr inbounds %class.String, %class.String* %this, i16 0, i32 2, !dbg !3077
  %1 = load i16, i16* %len2, align 1, !dbg !3077, !tbaa !288
  %cmp3 = icmp eq i16 %1, 0, !dbg !3078
  %cmp7 = icmp ugt i16 %0, %1, !dbg !3079
  %or.cond = or i1 %cmp3, %cmp7, !dbg !3080
  br i1 %or.cond, label %return, label %if.end, !dbg !3080

if.end:                                           ; preds = %lor.lhs.false
  %cmp9 = icmp ugt i16 %1, %fromIndex, !dbg !3081
  %sub = add i16 %1, -1, !dbg !3082
  tail call void @llvm.dbg.value(metadata i16 %sub, i64 0, metadata !3025, metadata !266), !dbg !3073
  %fromIndex.sub = select i1 %cmp9, i16 %fromIndex, i16 %sub, !dbg !3083
  tail call void @llvm.dbg.value(metadata i16 %fromIndex.sub, i64 0, metadata !3025, metadata !266), !dbg !3073
  tail call void @llvm.dbg.value(metadata i16 -1, i64 0, metadata !3026, metadata !266), !dbg !3084
  %buffer = getelementptr inbounds %class.String, %class.String* %this, i16 0, i32 0, !dbg !3085
  %2 = load i8*, i8** %buffer, align 1, !dbg !3085, !tbaa !277
  tail call void @llvm.dbg.value(metadata i8* %2, i64 0, metadata !3027, metadata !266), !dbg !3086
  tail call void @llvm.dbg.value(metadata i8* %2, i64 0, metadata !3027, metadata !266), !dbg !3086
  tail call void @llvm.dbg.value(metadata i16 -1, i64 0, metadata !3026, metadata !266), !dbg !3084
  %cmp1439 = icmp slt i16 %fromIndex.sub, 0, !dbg !3087
  br i1 %cmp1439, label %return, label %for.body.lr.ph, !dbg !3088

for.body.lr.ph:                                   ; preds = %if.end
  %buffer15 = getelementptr inbounds %class.String, %class.String* %s2, i16 0, i32 0, !dbg !3089
  %3 = load i8*, i8** %buffer15, align 1, !dbg !3089, !tbaa !277
  %sub.ptr.rhs.cast = ptrtoint i8* %2 to i16, !dbg !3090
  %add.ptr = getelementptr inbounds i8, i8* %2, i16 %fromIndex.sub, !dbg !3091
  br label %for.body, !dbg !3088

for.body:                                         ; preds = %for.body.lr.ph, %if.end17
  %p.041 = phi i8* [ %2, %for.body.lr.ph ], [ %incdec.ptr, %if.end17 ]
  %found.040 = phi i16 [ -1, %for.body.lr.ph ], [ %found.0.sub.ptr.sub, %if.end17 ]
  %call = tail call i8* @strstr(i8* %p.041, i8* %3) #9, !dbg !3092
  tail call void @llvm.dbg.value(metadata i8* %call, i64 0, metadata !3027, metadata !266), !dbg !3086
  %tobool = icmp eq i8* %call, null, !dbg !3093
  br i1 %tobool, label %return.loopexit, label %if.end17, !dbg !3094

if.end17:                                         ; preds = %for.body
  %sub.ptr.lhs.cast = ptrtoint i8* %call to i16, !dbg !3090
  %sub.ptr.sub = sub i16 %sub.ptr.lhs.cast, %sub.ptr.rhs.cast, !dbg !3090
  %cmp19 = icmp ugt i16 %sub.ptr.sub, %fromIndex.sub, !dbg !3095
  tail call void @llvm.dbg.value(metadata i16 %sub.ptr.sub, i64 0, metadata !3026, metadata !266), !dbg !3084
  %found.0.sub.ptr.sub = select i1 %cmp19, i16 %found.040, i16 %sub.ptr.sub, !dbg !3096
  tail call void @llvm.dbg.value(metadata i16 %found.0.sub.ptr.sub, i64 0, metadata !3026, metadata !266), !dbg !3084
  %incdec.ptr = getelementptr inbounds i8, i8* %call, i16 1, !dbg !3097
  tail call void @llvm.dbg.value(metadata i8* %incdec.ptr, i64 0, metadata !3027, metadata !266), !dbg !3086
  tail call void @llvm.dbg.value(metadata i8* %incdec.ptr, i64 0, metadata !3027, metadata !266), !dbg !3086
  tail call void @llvm.dbg.value(metadata i16 %found.0.sub.ptr.sub, i64 0, metadata !3026, metadata !266), !dbg !3084
  %cmp14 = icmp ugt i8* %incdec.ptr, %add.ptr, !dbg !3087
  br i1 %cmp14, label %return.loopexit, label %for.body, !dbg !3088, !llvm.loop !3067

return.loopexit:                                  ; preds = %if.end17, %for.body
  %retval.0.ph = phi i16 [ %found.040, %for.body ], [ %found.0.sub.ptr.sub, %if.end17 ]
  br label %return, !dbg !3098

return:                                           ; preds = %return.loopexit, %if.end, %entry, %lor.lhs.false
  %retval.0 = phi i16 [ -1, %lor.lhs.false ], [ -1, %entry ], [ -1, %if.end ], [ %retval.0.ph, %return.loopexit ]
  ret i16 %retval.0, !dbg !3098
}

define void @_ZNK6String9substringEjj(%class.String* noalias sret %agg.result, %class.String* nocapture readonly %this, i16 %left, i16 %right) local_unnamed_addr #3 align 2 personality i8* bitcast (i32 (...)* @__gxx_personality_v0 to i8*) !dbg !3100 {
entry:
  tail call void @llvm.dbg.value(metadata %class.String* %this, i64 0, metadata !3102, metadata !266), !dbg !3110
  tail call void @llvm.dbg.value(metadata i16 %left, i64 0, metadata !3103, metadata !266), !dbg !3111
  tail call void @llvm.dbg.value(metadata i16 %right, i64 0, metadata !3104, metadata !266), !dbg !3112
  %cmp = icmp ugt i16 %left, %right, !dbg !3113
  tail call void @llvm.dbg.value(metadata i16 %left, i64 0, metadata !3104, metadata !266), !dbg !3112
  tail call void @llvm.dbg.value(metadata i16 %right, i64 0, metadata !3103, metadata !266), !dbg !3111
  %left.right = select i1 %cmp, i16 %left, i16 %right, !dbg !3114
  %right.left = select i1 %cmp, i16 %right, i16 %left, !dbg !3114
  tail call void @llvm.dbg.value(metadata i16 %right.left, i64 0, metadata !3103, metadata !266), !dbg !3111
  tail call void @llvm.dbg.value(metadata i16 %left.right, i64 0, metadata !3104, metadata !266), !dbg !3112
  tail call void @llvm.dbg.declare(metadata %class.String* %agg.result, metadata !3108, metadata !3115), !dbg !3116
  tail call void @llvm.dbg.value(metadata %class.String* %agg.result, i64 0, metadata !264, metadata !266) #10, !dbg !3117
  tail call void @llvm.dbg.value(metadata %class.String* %agg.result, i64 0, metadata !269, metadata !266) #10, !dbg !3119
  %buffer.i.i = getelementptr inbounds %class.String, %class.String* %agg.result, i16 0, i32 0, !dbg !3121
  store i8* null, i8** %buffer.i.i, align 2, !dbg !3122, !tbaa !277
  %capacity.i.i = getelementptr inbounds %class.String, %class.String* %agg.result, i16 0, i32 1, !dbg !3123
  store i16 0, i16* %capacity.i.i, align 2, !dbg !3124, !tbaa !285
  %len.i.i = getelementptr inbounds %class.String, %class.String* %agg.result, i16 0, i32 2, !dbg !3125
  store i16 0, i16* %len.i.i, align 2, !dbg !3126, !tbaa !288
  tail call void @llvm.dbg.value(metadata %class.String* %agg.result, i64 0, metadata !294, metadata !266) #10, !dbg !3127
  tail call void @llvm.dbg.value(metadata i16 0, i64 0, metadata !298, metadata !266) #10, !dbg !3129
  tail call void @llvm.dbg.value(metadata %class.String* %agg.result, i64 0, metadata !304, metadata !266) #10, !dbg !3130
  tail call void @llvm.dbg.value(metadata i16 0, i64 0, metadata !307, metadata !266) #10, !dbg !3132
  tail call void @llvm.dbg.value(metadata %class.String* %agg.result, i64 0, metadata !312, metadata !266) #10, !dbg !3133
  tail call void @llvm.dbg.value(metadata i16 0, i64 0, metadata !315, metadata !266) #10, !dbg !3135
  %call.i.i.i.i = tail call noalias i8* @realloc(i8* null, i16 1) #10, !dbg !3136
  tail call void @llvm.dbg.value(metadata i8* %call.i.i.i.i, i64 0, metadata !316, metadata !266) #10, !dbg !3137
  %tobool.i.i.i.i = icmp eq i8* %call.i.i.i.i, null, !dbg !3138
  br i1 %tobool.i.i.i.i, label %_ZN6String10invalidateEv.exit.i.i, label %if.end.i.i, !dbg !3139

_ZN6String10invalidateEv.exit.i.i:                ; preds = %entry
  tail call void @llvm.dbg.value(metadata %class.String* %agg.result, i64 0, metadata !339, metadata !266) #10, !dbg !3140
  store i8* null, i8** %buffer.i.i, align 2, !dbg !3142, !tbaa !277
  store i16 0, i16* %len.i.i, align 2, !dbg !3143, !tbaa !288
  store i16 0, i16* %capacity.i.i, align 2, !dbg !3144, !tbaa !285
  br label %_ZN6StringC2EPKc.exit, !dbg !3145

if.end.i.i:                                       ; preds = %entry
  store i8* %call.i.i.i.i, i8** %buffer.i.i, align 2, !dbg !3146, !tbaa !277
  store i16 0, i16* %capacity.i.i, align 2, !dbg !3147, !tbaa !285
  store i16 0, i16* %len.i.i, align 2, !dbg !3148, !tbaa !288
  store i8 0, i8* %call.i.i.i.i, align 1, !dbg !3149
  br label %_ZN6StringC2EPKc.exit, !dbg !3150

_ZN6StringC2EPKc.exit:                            ; preds = %_ZN6String10invalidateEv.exit.i.i, %if.end.i.i
  %len = getelementptr inbounds %class.String, %class.String* %this, i16 0, i32 2, !dbg !3151
  %0 = load i16, i16* %len, align 1, !dbg !3151, !tbaa !288
  %cmp2 = icmp ult i16 %right.left, %0, !dbg !3153
  br i1 %cmp2, label %invoke.cont, label %nrvo.skipdtor, !dbg !3154

invoke.cont:                                      ; preds = %_ZN6StringC2EPKc.exit
  %cmp6 = icmp ugt i16 %left.right, %0, !dbg !3155
  tail call void @llvm.dbg.value(metadata i16 %0, i64 0, metadata !3104, metadata !266), !dbg !3112
  %.left.right = select i1 %cmp6, i16 %0, i16 %left.right, !dbg !3157
  tail call void @llvm.dbg.value(metadata i16 %.left.right, i64 0, metadata !3104, metadata !266), !dbg !3112
  %buffer = getelementptr inbounds %class.String, %class.String* %this, i16 0, i32 0, !dbg !3158
  %1 = load i8*, i8** %buffer, align 1, !dbg !3158, !tbaa !277
  %arrayidx = getelementptr inbounds i8, i8* %1, i16 %.left.right, !dbg !3158
  %2 = load i8, i8* %arrayidx, align 1, !dbg !3158, !tbaa !337
  tail call void @llvm.dbg.value(metadata i8 %2, i64 0, metadata !3109, metadata !266), !dbg !3159
  store i8 0, i8* %arrayidx, align 1, !dbg !3160, !tbaa !337
  %3 = load i8*, i8** %buffer, align 1, !dbg !3161, !tbaa !277
  %add.ptr = getelementptr inbounds i8, i8* %3, i16 %right.left, !dbg !3162
  %call = tail call dereferenceable(6) %class.String* @_ZN6StringaSEPKc(%class.String* nonnull %agg.result, i8* %add.ptr), !dbg !3163
  %4 = load i8*, i8** %buffer, align 1, !dbg !3164, !tbaa !277
  %arrayidx15 = getelementptr inbounds i8, i8* %4, i16 %.left.right, !dbg !3164
  store i8 %2, i8* %arrayidx15, align 1, !dbg !3165, !tbaa !337
  br label %nrvo.skipdtor

nrvo.skipdtor:                                    ; preds = %invoke.cont, %_ZN6StringC2EPKc.exit
  ret void, !dbg !3166
}

declare i32 @__gxx_personality_v0(...)

; Function Attrs: nounwind
define void @_ZN6String7replaceEcc(%class.String* nocapture readonly %this, i8 signext %find, i8 signext %replace) local_unnamed_addr #0 align 2 !dbg !3168 {
entry:
  tail call void @llvm.dbg.value(metadata %class.String* %this, i64 0, metadata !3170, metadata !266), !dbg !3175
  tail call void @llvm.dbg.value(metadata i8 %find, i64 0, metadata !3171, metadata !266), !dbg !3176
  tail call void @llvm.dbg.value(metadata i8 %replace, i64 0, metadata !3172, metadata !266), !dbg !3177
  %buffer = getelementptr inbounds %class.String, %class.String* %this, i16 0, i32 0, !dbg !3178
  %0 = load i8*, i8** %buffer, align 1, !dbg !3178, !tbaa !277
  %tobool = icmp eq i8* %0, null, !dbg !3178
  br i1 %tobool, label %for.end, label %for.cond.preheader, !dbg !3180

for.cond.preheader:                               ; preds = %entry
  tail call void @llvm.dbg.value(metadata i8* %0, i64 0, metadata !3173, metadata !266), !dbg !3181
  %1 = load i8, i8* %0, align 1, !dbg !3182, !tbaa !337
  %tobool311 = icmp eq i8 %1, 0, !dbg !3182
  br i1 %tobool311, label %for.end, label %for.body.preheader, !dbg !3185

for.body.preheader:                               ; preds = %for.cond.preheader
  br label %for.body, !dbg !3187

for.body:                                         ; preds = %for.body.preheader, %for.inc
  %2 = phi i8 [ %3, %for.inc ], [ %1, %for.body.preheader ]
  %p.012 = phi i8* [ %incdec.ptr, %for.inc ], [ %0, %for.body.preheader ]
